
QCZEK_LRS_Companion.elf:     file format elf32-avr

Sections:
Idx Name          Size      VMA       LMA       File off  Algn
  0 .data         00000128  00800100  00005876  0000590a  2**0
                  CONTENTS, ALLOC, LOAD, DATA
  1 .text         00005876  00000000  00000000  00000094  2**1
                  CONTENTS, ALLOC, LOAD, READONLY, CODE
  2 .bss          00000360  00800228  00800228  00005a32  2**0
                  ALLOC
  3 .comment      0000005c  00000000  00000000  00005a32  2**0
                  CONTENTS, READONLY
  4 .note.gnu.avr.deviceinfo 00000040  00000000  00000000  00005a90  2**2
                  CONTENTS, READONLY
  5 .debug_info   000005f4  00000000  00000000  00005ad0  2**0
                  CONTENTS, READONLY, DEBUGGING
  6 .debug_abbrev 000005a2  00000000  00000000  000060c4  2**0
                  CONTENTS, READONLY, DEBUGGING
  7 .debug_line   00000133  00000000  00000000  00006666  2**0
                  CONTENTS, READONLY, DEBUGGING
  8 .debug_str    00000208  00000000  00000000  00006799  2**0
                  CONTENTS, READONLY, DEBUGGING

Disassembly of section .text:

00000000 <__vectors>:
       0:	0c 94 9c 12 	jmp	0x2538	; 0x2538 <__ctors_end>
       4:	0c 94 c4 12 	jmp	0x2588	; 0x2588 <__bad_interrupt>
       8:	0c 94 c4 12 	jmp	0x2588	; 0x2588 <__bad_interrupt>
       c:	0c 94 c4 12 	jmp	0x2588	; 0x2588 <__bad_interrupt>
      10:	0c 94 c4 12 	jmp	0x2588	; 0x2588 <__bad_interrupt>
      14:	0c 94 c4 12 	jmp	0x2588	; 0x2588 <__bad_interrupt>
      18:	0c 94 c4 12 	jmp	0x2588	; 0x2588 <__bad_interrupt>
      1c:	0c 94 c4 12 	jmp	0x2588	; 0x2588 <__bad_interrupt>
      20:	0c 94 c4 12 	jmp	0x2588	; 0x2588 <__bad_interrupt>
      24:	0c 94 c4 12 	jmp	0x2588	; 0x2588 <__bad_interrupt>
      28:	0c 94 c4 12 	jmp	0x2588	; 0x2588 <__bad_interrupt>
      2c:	0c 94 c4 12 	jmp	0x2588	; 0x2588 <__bad_interrupt>
      30:	0c 94 c4 12 	jmp	0x2588	; 0x2588 <__bad_interrupt>
      34:	0c 94 c4 12 	jmp	0x2588	; 0x2588 <__bad_interrupt>
      38:	0c 94 c4 12 	jmp	0x2588	; 0x2588 <__bad_interrupt>
      3c:	0c 94 c4 12 	jmp	0x2588	; 0x2588 <__bad_interrupt>
      40:	0c 94 e2 23 	jmp	0x47c4	; 0x47c4 <__vector_16>
      44:	0c 94 c4 12 	jmp	0x2588	; 0x2588 <__bad_interrupt>
      48:	0c 94 cc 1b 	jmp	0x3798	; 0x3798 <__vector_18>
      4c:	0c 94 c4 12 	jmp	0x2588	; 0x2588 <__bad_interrupt>
      50:	0c 94 c4 12 	jmp	0x2588	; 0x2588 <__bad_interrupt>
      54:	0c 94 c4 12 	jmp	0x2588	; 0x2588 <__bad_interrupt>
      58:	0c 94 c4 12 	jmp	0x2588	; 0x2588 <__bad_interrupt>
      5c:	0c 94 c4 12 	jmp	0x2588	; 0x2588 <__bad_interrupt>
      60:	0c 94 c4 12 	jmp	0x2588	; 0x2588 <__bad_interrupt>
      64:	0c 94 c4 12 	jmp	0x2588	; 0x2588 <__bad_interrupt>
      68:	31 1c       	adc	r3, r1
      6a:	31 1c       	adc	r3, r1
      6c:	42 1c       	adc	r4, r2
      6e:	56 1c       	adc	r5, r6
      70:	4d 1c       	adc	r4, r13
      72:	5f 1c       	adc	r5, r15
      74:	68 1c       	adc	r6, r8
      76:	79 1c       	adc	r7, r9
      78:	8f 1c       	adc	r8, r15
      7a:	af 1c       	adc	r10, r15
      7c:	af 1c       	adc	r10, r15

0000007e <__trampolines_end>:
      7e:	00 40       	sbci	r16, 0x00	; 0
      80:	7a 10       	cpse	r7, r10
      82:	f3 5a       	subi	r31, 0xA3	; 163
      84:	00 a0       	ldd	r0, Z+32	; 0x20
      86:	72 4e       	sbci	r23, 0xE2	; 226
      88:	18 09       	sbc	r17, r8
      8a:	00 10       	cpse	r0, r0
      8c:	a5 d4       	rcall	.+2378   	; 0x9d8 <u8g_font_10x20+0x91>
      8e:	e8 00       	.word	0x00e8	; ????
      90:	00 e8       	ldi	r16, 0x80	; 128
      92:	76 48       	sbci	r23, 0x86	; 134
      94:	17 00       	.word	0x0017	; ????
      96:	00 e4       	ldi	r16, 0x40	; 64
      98:	0b 54       	subi	r16, 0x4B	; 75
      9a:	02 00       	.word	0x0002	; ????
      9c:	00 ca       	rjmp	.-3072   	; 0xfffff49e <__eeprom_end+0xff7ef49e>
      9e:	9a 3b       	cpi	r25, 0xBA	; 186
      a0:	00 00       	nop
      a2:	00 e1       	ldi	r16, 0x10	; 16
      a4:	f5 05       	cpc	r31, r5
      a6:	00 00       	nop
      a8:	80 96       	adiw	r24, 0x20	; 32
      aa:	98 00       	.word	0x0098	; ????
      ac:	00 00       	nop
      ae:	40 42       	sbci	r20, 0x20	; 32
      b0:	0f 00       	.word	0x000f	; ????
      b2:	00 00       	nop
      b4:	a0 86       	std	Z+8, r10	; 0x08
      b6:	01 00       	.word	0x0001	; ????
      b8:	00 00       	nop
      ba:	10 27       	eor	r17, r16
      bc:	00 00       	nop
      be:	00 00       	nop
      c0:	e8 03       	fmulsu	r22, r16
      c2:	00 00       	nop
      c4:	00 00       	nop
      c6:	64 00       	.word	0x0064	; ????
      c8:	00 00       	nop
      ca:	00 00       	nop
      cc:	0a 00       	.word	0x000a	; ????
      ce:	00 00       	nop
      d0:	00 00       	nop
      d2:	01 00       	.word	0x0001	; ????
      d4:	00 00       	nop
      d6:	00 00       	nop
      d8:	2c 76       	andi	r18, 0x6C	; 108
      da:	d8 88       	ldd	r13, Y+16	; 0x10
      dc:	dc 67       	ori	r29, 0x7C	; 124
      de:	4f 08       	sbc	r4, r15
      e0:	23 df       	rcall	.-442    	; 0xffffff28 <__eeprom_end+0xff7eff28>
      e2:	c1 df       	rcall	.-126    	; 0x66 <__SREG__+0x27>
      e4:	ae 59       	subi	r26, 0x9E	; 158
      e6:	e1 b1       	in	r30, 0x01	; 1
      e8:	b7 96       	adiw	r30, 0x27	; 39
      ea:	e5 e3       	ldi	r30, 0x35	; 53
      ec:	e4 53       	subi	r30, 0x34	; 52
      ee:	c6 3a       	cpi	r28, 0xA6	; 166
      f0:	e6 51       	subi	r30, 0x16	; 22
      f2:	99 76       	andi	r25, 0x69	; 105
      f4:	96 e8       	ldi	r25, 0x86	; 134
      f6:	e6 c2       	rjmp	.+1484   	; 0x6c4 <__LOCK_REGION_LENGTH__+0x2c4>
      f8:	84 26       	eor	r8, r20
      fa:	eb 89       	ldd	r30, Y+19	; 0x13
      fc:	8c 9b       	sbis	0x11, 4	; 17
      fe:	62 ed       	ldi	r22, 0xD2	; 210
     100:	40 7c       	andi	r20, 0xC0	; 192
     102:	6f fc       	.word	0xfc6f	; ????
     104:	ef bc       	out	0x2f, r14	; 47
     106:	9c 9f       	mul	r25, r28
     108:	40 f2       	brcs	.-112    	; 0x9a <__trampolines_end+0x1c>
     10a:	ba a5       	ldd	r27, Y+42	; 0x2a
     10c:	6f a5       	ldd	r22, Y+47	; 0x2f
     10e:	f4 90       	lpm	r15, Z
     110:	05 5a       	subi	r16, 0xA5	; 165
     112:	2a f7       	brpl	.-54     	; 0xde <__trampolines_end+0x60>
     114:	5c 93       	st	X, r21
     116:	6b 6c       	ori	r22, 0xCB	; 203
     118:	f9 67       	ori	r31, 0x79	; 121
     11a:	6d c1       	rjmp	.+730    	; 0x3f6 <u8g_font_6x12+0x23c>
     11c:	1b fc       	.word	0xfc1b	; ????
     11e:	e0 e4       	ldi	r30, 0x40	; 64
     120:	0d 47       	sbci	r16, 0x7D	; 125
     122:	fe f5       	brtc	.+126    	; 0x1a2 <u8g_dev_ssd1306_128x64_adafruit2_init_seq+0xe>
     124:	20 e6       	ldi	r18, 0x60	; 96
     126:	b5 00       	.word	0x00b5	; ????
     128:	d0 ed       	ldi	r29, 0xD0	; 208
     12a:	90 2e       	mov	r9, r16
     12c:	03 00       	.word	0x0003	; ????
     12e:	94 35       	cpi	r25, 0x54	; 84
     130:	77 05       	cpc	r23, r7
     132:	00 80       	ld	r0, Z
     134:	84 1e       	adc	r8, r20
     136:	08 00       	.word	0x0008	; ????
     138:	00 20       	and	r0, r0
     13a:	4e 0a       	sbc	r4, r30
     13c:	00 00       	nop
     13e:	00 c8       	rjmp	.-4096   	; 0xfffff140 <__eeprom_end+0xff7ef140>
     140:	0c 33       	cpi	r16, 0x3C	; 60
     142:	33 33       	cpi	r19, 0x33	; 51
     144:	33 0f       	add	r19, r19
     146:	98 6e       	ori	r25, 0xE8	; 232
     148:	12 83       	std	Z+2, r17	; 0x02
     14a:	11 41       	sbci	r17, 0x11	; 17
     14c:	ef 8d       	ldd	r30, Y+31	; 0x1f
     14e:	21 14       	cp	r2, r1
     150:	89 3b       	cpi	r24, 0xB9	; 185
     152:	e6 55       	subi	r30, 0x56	; 86
     154:	16 cf       	rjmp	.-468    	; 0xffffff82 <__eeprom_end+0xff7eff82>
     156:	fe e6       	ldi	r31, 0x6E	; 110
     158:	db 18       	sub	r13, r11
     15a:	d1 84       	ldd	r13, Z+9	; 0x09
     15c:	4b 38       	cpi	r20, 0x8B	; 139
     15e:	1b f7       	brvc	.-58     	; 0x126 <__trampolines_end+0xa8>
     160:	7c 1d       	adc	r23, r12
     162:	90 1d       	adc	r25, r0
     164:	a4 bb       	out	0x14, r26	; 20
     166:	e4 24       	eor	r14, r4
     168:	20 32       	cpi	r18, 0x20	; 32
     16a:	84 72       	andi	r24, 0x24	; 36
     16c:	5e 22       	and	r5, r30
     16e:	81 00       	.word	0x0081	; ????
     170:	c9 f1       	breq	.+114    	; 0x1e4 <u8g_font_6x12+0x2a>
     172:	24 ec       	ldi	r18, 0xC4	; 196
     174:	a1 e5       	ldi	r26, 0x51	; 81
     176:	3d 27       	eor	r19, r29

00000178 <u8g_dev_ssd13xx_sleep_off>:
     178:	ff e0 ff d1 af ff 32 ff d0 ff fe                    ......2....

00000183 <u8g_dev_ssd13xx_sleep_on>:
     183:	ff e0 ff d1 ae ff d0 ff fe                          .........

0000018c <u8g_dev_ssd1306_128x64_data_start>:
     18c:	ff e0 ff d1 10 00 ff fe                             ........

00000194 <u8g_dev_ssd1306_128x64_adafruit2_init_seq>:
     194:	ff d0 ff e0 ff c1 ff d1 ae d5 80 a8 3f d3 00 40     ............?..@
     1a4:	8d 14 20 00 a1 c8 da 12 81 cf d9 f1 db 40 2e a4     .. ..........@..
     1b4:	a6 af ff d0 ff fe                                   ......

000001ba <u8g_font_6x12>:
     1ba:	01 06 0c 00 fe 07 01 35 02 6b 20 ff fe 0a fe 08     .......5.k .....
     1ca:	fe 0c 00 60 22 17 67 80 80 80 80 80 00 80 17 33     ...`".g........3
     1da:	63 a0 a0 a0 02 56 66 50 f8 50 50 f8 50 01 59 69     c....VfP.PP.P.Yi
     1ea:	20 70 a8 a0 70 28 a8 70 20 02 57 67 c8 c8 10 20      p..p(.p .Wg... 
     1fa:	40 98 98 02 57 67 40 a0 a0 40 a8 90 68 27 13 63     @...Wg@..@..h'.c
     20a:	80 80 80 11 39 69 20 40 40 80 80 80 40 40 20 11     ....9i @@...@@ .
     21a:	39 69 80 40 40 20 20 20 40 40 80 02 57 67 20 a8     9i.@@   @@..Wg .
     22a:	70 20 70 a8 20 03 55 65 20 20 f8 20 20 01 33 63     p p. .Ue  .  .3c
     23a:	60 60 c0 05 51 61 f8 12 22 62 c0 c0 02 57 67 08     ``..Qa.."b...Wg.
     24a:	10 10 20 40 40 80 12 47 67 60 90 90 90 90 90 60     .. @@..Gg`.....`
     25a:	12 37 67 40 c0 40 40 40 40 e0 02 57 67 70 88 08     .7g@.@@@@..Wgp..
     26a:	10 20 40 f8 02 57 67 f8 08 10 30 08 88 70 02 57     . @..Wg...0..p.W
     27a:	67 10 30 50 90 f8 10 10 02 57 67 f8 80 f0 08 08     g.0P.....Wg.....
     28a:	88 70 02 57 67 30 40 80 f0 88 88 70 02 57 67 f8     .p.Wg0@....p.Wg.
     29a:	08 10 10 20 20 20 02 57 67 70 88 88 70 88 88 70     ...   .Wgp..p..p
     2aa:	02 57 67 70 88 88 78 08 10 60 12 25 65 c0 c0 00     .Wgp..x..`.%e...
     2ba:	c0 c0 01 36 66 60 60 00 60 60 c0 13 35 65 20 40     ...6f``.``..5e @
     2ca:	80 40 20 04 53 63 f8 00 f8 13 35 65 80 40 20 40     .@ .Sc....5e.@ @
     2da:	80 02 57 67 70 88 10 20 20 00 20 02 57 67 70 88     ..Wgp..  . .Wgp.
     2ea:	b8 a8 b8 80 70 02 57 67 70 88 88 f8 88 88 88 02     ....p.Wgp.......
     2fa:	57 67 f0 48 48 70 48 48 f0 02 57 67 70 88 80 80     Wg.HHpHH..Wgp...
     30a:	80 88 70 02 57 67 f0 48 48 48 48 48 f0 02 57 67     ..p.Wg.HHHHH..Wg
     31a:	f8 80 80 f0 80 80 f8 02 57 67 f8 80 80 f0 80 80     ........Wg......
     32a:	80 02 57 67 70 88 80 80 98 88 70 02 57 67 88 88     ..Wgp.....p.Wg..
     33a:	88 f8 88 88 88 12 37 67 e0 40 40 40 40 40 e0 02     ......7g.@@@@@..
     34a:	57 67 38 10 10 10 10 90 60 02 57 67 88 90 a0 c0     Wg8.....`.Wg....
     35a:	a0 90 88 02 57 67 80 80 80 80 80 80 f8 02 57 67     ....Wg........Wg
     36a:	88 d8 a8 88 88 88 88 02 57 67 88 88 c8 a8 98 88     ........Wg......
     37a:	88 02 57 67 70 88 88 88 88 88 70 02 57 67 f0 88     ..Wgp.....p.Wg..
     38a:	88 f0 80 80 80 02 57 67 70 88 88 88 a8 90 68 02     ......Wgp.....h.
     39a:	57 67 f0 88 88 f0 a0 90 88 02 57 67 70 88 80 70     Wg........Wgp..p
     3aa:	08 88 70 02 57 67 f8 20 20 20 20 20 20 02 57 67     ..p.Wg.      .Wg
     3ba:	88 88 88 88 88 88 70 02 57 67 88 88 88 88 50 50     ......p.Wg....PP
     3ca:	20 02 57 67 88 88 88 88 a8 a8 50 02 57 67 88 88      .Wg......P.Wg..
     3da:	50 20 50 88 88 02 57 67 88 88 50 20 20 20 20 02     P P...Wg..P    .
     3ea:	57 67 f8 08 10 20 40 80 f8 11 39 69 e0 80 80 80     Wg... @...9i....
     3fa:	80 80 80 80 e0 02 57 67 80 40 40 20 10 10 08 11     ......Wg.@@ ....
     40a:	39 69 e0 20 20 20 20 20 20 20 e0 07 53 63 20 50     9i.       ..Sc P
     41a:	88 00 51 61 f8 17 33 63 80 40 20 02 55 65 70 08     ..Qa..3c.@ .Uep.
     42a:	78 88 78 02 57 67 80 80 f0 88 88 88 f0 02 55 65     x.x.Wg........Ue
     43a:	70 88 80 88 70 02 57 67 08 08 78 88 88 88 78 02     p...p.Wg..x...x.
     44a:	55 65 70 88 f0 80 70 02 57 67 30 48 40 e0 40 40     Uep...p.Wg0H@.@@
     45a:	40 00 57 67 70 88 88 88 78 08 70 02 57 67 80 80     @.Wgp...x.p.Wg..
     46a:	f0 88 88 88 88 12 37 67 40 00 c0 40 40 40 e0 10     ......7g@..@@@..
     47a:	49 69 10 00 30 10 10 10 10 90 60 02 57 67 80 80     Ii..0.....`.Wg..
     48a:	88 90 e0 90 88 12 37 67 c0 40 40 40 40 40 e0 02     ......7g.@@@@@..
     49a:	55 65 d0 a8 a8 a8 a8 02 55 65 b0 c8 88 88 88 02     Ue......Ue......
     4aa:	55 65 70 88 88 88 70 00 57 67 f0 88 88 88 f0 80     Uep...p.Wg......
     4ba:	80 00 57 67 78 88 88 88 78 08 08 02 55 65 b0 c8     ..Wgx...x...Ue..
     4ca:	80 80 80 02 55 65 78 80 70 08 f0 02 57 67 20 20     ....Uex.p...Wg  
     4da:	f8 20 20 20 18 02 55 65 88 88 88 98 68 02 55 65     .   ..Ue....h.Ue
     4ea:	88 88 88 50 20 02 55 65 88 88 a8 a8 50 02 55 65     ...P .Ue....P.Ue
     4fa:	88 50 20 50 88 00 57 67 88 88 88 50 20 40 80 02     .P P..Wg...P @..
     50a:	55 65 f8 10 20 40 f8 11 39 69 20 40 40 40 80 40     Ue.. @..9i @@@.@
     51a:	40 40 20 21 19 69 80 80 80 80 80 80 80 80 80 11     @@ !.i..........
     52a:	39 69 80 40 40 40 20 40 40 40 80 04 53 63 48 a8     9i.@@@ @@@..ScH.
     53a:	90 ff ff ff ff ff ff ff ff ff ff ff ff ff ff ff     ................
     54a:	ff ff ff ff ff ff ff ff ff ff ff ff ff ff ff ff     ................
     55a:	ff ff 0c 00 60 22 17 67 80 00 80 80 80 80 80 01     ....`".g........
     56a:	57 67 20 70 a8 a0 a8 70 20 02 57 67 30 48 40 e0     Wg p...p .Wg0H@.
     57a:	40 48 b0 02 55 65 a8 50 88 50 a8 02 57 67 88 50     @H..Ue.P.P..Wg.P
     58a:	f8 20 f8 20 20 22 17 67 80 80 80 00 80 80 80 12     . .  ".g........
     59a:	48 68 70 80 60 90 90 60 10 e0 19 31 61 a0 02 67     Hhp.`..`...1a..g
     5aa:	67 78 84 94 a4 94 84 78 16 35 65 60 a0 60 00 e0     gx.....x.5e`.`..
     5ba:	02 55 65 28 50 a0 50 28 03 53 63 f8 08 08 15 31     .Ue(P.P(.Sc....1
     5ca:	61 e0 02 67 67 78 84 b4 a4 a4 84 78 09 51 61 f8     a..ggx.....x.Qa.
     5da:	17 44 64 60 90 90 60 02 57 67 20 20 f8 20 20 00     .Dd`..`.Wg  .  .
     5ea:	f8 17 35 65 40 a0 20 40 e0 17 35 65 c0 20 40 20     ..5e@. @..5e. @ 
     5fa:	c0 17 33 63 20 40 80 00 57 67 88 88 88 98 e8 80     ..3c @..Wg......
     60a:	80 02 58 68 78 e8 e8 e8 68 28 28 28 25 22 62 c0     ..Xhx...h(((%"b.
     61a:	c0 10 32 62 20 c0 17 35 65 40 c0 40 40 e0 17 35     ..2b ..5e@.@@..5
     62a:	65 40 a0 40 00 e0 02 55 65 a0 50 28 50 a0 02 5a     e@.@...Ue.P(P..Z
     63a:	6a 40 c0 40 40 50 30 50 78 10 10 02 5a 6a 40 c0     j@.@@P0Px...Zj@.
     64a:	40 40 50 28 08 10 20 38 02 5a 6a c0 20 40 20 d0     @@P(.. 8.Zj. @ .
     65a:	30 50 78 10 10 02 57 67 20 00 20 20 40 88 70 02     0Px...Wg .  @.p.
     66a:	5a 6a 40 20 00 70 88 88 f8 88 88 88 02 5a 6a 10     Zj@ .p.......Zj.
     67a:	20 00 70 88 88 f8 88 88 88 02 5a 6a 20 50 00 70      .p.......Zj P.p
     68a:	88 88 f8 88 88 88 02 5a 6a 68 b0 00 70 88 88 f8     .......Zjh..p...
     69a:	88 88 88 02 59 69 50 00 70 88 88 f8 88 88 88 02     ....YiP.p.......
     6aa:	5a 6a 20 50 20 70 88 88 f8 88 88 88 02 57 67 78     Zj P p.......Wgx
     6ba:	a0 a0 f0 a0 a0 b8 00 59 69 70 88 80 80 80 88 70     .......Yip.....p
     6ca:	10 60 02 5a 6a 40 20 00 f8 80 80 f0 80 80 f8 02     .`.Zj@ .........
     6da:	5a 6a 10 20 00 f8 80 80 f0 80 80 f8 02 5a 6a 20     Zj. .........Zj 
     6ea:	50 00 f8 80 80 f0 80 80 f8 02 59 69 50 00 f8 80     P.........YiP...
     6fa:	80 f0 80 80 f8 12 3a 6a 80 40 00 e0 40 40 40 40     ......:j.@..@@@@
     70a:	40 e0 12 3a 6a 20 40 00 e0 40 40 40 40 40 e0 12     @..:j @..@@@@@..
     71a:	3a 6a 40 a0 00 e0 40 40 40 40 40 e0 12 39 69 a0     :j@...@@@@@..9i.
     72a:	00 e0 40 40 40 40 40 e0 02 57 67 70 48 48 e8 48     ..@@@@@..WgpHH.H
     73a:	48 70 02 5a 6a 68 b0 00 88 88 c8 a8 98 88 88 02     Hp.Zjh..........
     74a:	5a 6a 40 20 00 70 88 88 88 88 88 70 02 5a 6a 10     Zj@ .p.....p.Zj.
     75a:	20 00 70 88 88 88 88 88 70 02 5a 6a 20 50 00 70      .p.....p.Zj P.p
     76a:	88 88 88 88 88 70 02 5a 6a 68 b0 00 70 88 88 88     .....p.Zjh..p...
     77a:	88 88 70 02 59 69 50 00 70 88 88 88 88 88 70 03     ..p.YiP.p.....p.
     78a:	55 65 88 50 20 50 88 01 59 69 08 70 98 a8 a8 a8     Ue.P P..Yi.p....
     79a:	c8 70 80 02 5a 6a 40 20 00 88 88 88 88 88 88 70     .p..Zj@ .......p
     7aa:	02 5a 6a 10 20 00 88 88 88 88 88 88 70 02 5a 6a     .Zj. .......p.Zj
     7ba:	20 50 00 88 88 88 88 88 88 70 02 59 69 50 00 88      P.......p.YiP..
     7ca:	88 88 88 88 88 70 02 5a 6a 10 20 00 88 88 50 20     .....p.Zj. ...P 
     7da:	20 20 20 12 47 67 80 e0 90 90 90 e0 80 02 57 67        .Gg........Wg
     7ea:	70 88 90 a0 90 88 b0 02 58 68 40 20 00 70 08 78     p.......Xh@ .p.x
     7fa:	88 78 02 58 68 10 20 00 70 08 78 88 78 02 58 68     .x.Xh. .p.x.x.Xh
     80a:	20 50 00 70 08 78 88 78 02 58 68 68 b0 00 70 08      P.p.x.x.Xhh..p.
     81a:	78 88 78 02 57 67 50 00 70 08 78 88 78 02 58 68     x.x.WgP.p.x.x.Xh
     82a:	20 50 20 70 08 78 88 78 02 55 65 70 28 70 a0 78      P p.x.x.Uep(p.x
     83a:	00 57 67 70 88 80 88 70 10 60 02 58 68 40 20 00     .Wgp...p.`.Xh@ .
     84a:	70 88 f0 80 70 02 58 68 10 20 00 70 88 f0 80 70     p...p.Xh. .p...p
     85a:	02 58 68 20 50 00 70 88 f0 80 70 02 57 67 50 00     .Xh P.p...p.WgP.
     86a:	70 88 f0 80 70 12 38 68 80 40 00 c0 40 40 40 e0     p...p.8h.@..@@@.
     87a:	12 38 68 20 40 00 c0 40 40 40 e0 12 38 68 40 a0     .8h @..@@@..8h@.
     88a:	00 c0 40 40 40 e0 12 37 67 a0 00 c0 40 40 40 e0     ..@@@..7g...@@@.
     89a:	02 59 69 50 20 50 08 78 88 88 88 70 02 58 68 68     .YiP P.x...p.Xhh
     8aa:	b0 00 b0 c8 88 88 88 02 58 68 40 20 00 70 88 88     ........Xh@ .p..
     8ba:	88 70 02 58 68 10 20 00 70 88 88 88 70 02 58 68     .p.Xh. .p...p.Xh
     8ca:	20 50 00 70 88 88 88 70 02 58 68 68 b0 00 70 88      P.p...p.Xhh..p.
     8da:	88 88 70 02 57 67 50 00 70 88 88 88 70 03 55 65     ..p.WgP.p...p.Ue
     8ea:	20 00 f8 00 20 02 55 65 78 98 a8 c8 f0 02 58 68      ... .Uex.....Xh
     8fa:	40 20 00 88 88 88 88 70 02 58 68 10 20 00 88 88     @ .....p.Xh. ...
     90a:	88 88 70 02 58 68 20 50 00 88 88 88 88 70 02 57     ..p.Xh P.....p.W
     91a:	67 50 00 88 88 88 88 70 00 5a 6a 10 20 00 88 88     gP.....p.Zj. ...
     92a:	88 50 20 40 80 00 59 69 80 80 f0 88 88 88 f0 80     .P @..Yi........
     93a:	80 00 59 69 50 00 88 88 88 50 20 40 80              ..YiP....P @.

00000947 <u8g_font_10x20>:
     947:	00 0a 14 00 fc 0d 02 4a 04 99 20 ff fc 10 fc 0d     .......J.. .....
     957:	fc 00 00 00 0a 00 10 02 0d 0d 0a 04 00 c0 c0 c0     ................
     967:	c0 c0 c0 c0 c0 c0 c0 00 c0 c0 06 04 04 0a 02 09     ................
     977:	cc cc cc 48 09 0b 16 0a 01 01 1b 00 1b 00 1b 00     ...H............
     987:	7f 80 36 00 36 00 36 00 ff 00 6c 00 6c 00 6c 00     ..6.6.6...l.l.l.
     997:	08 0d 0d 0a 01 00 18 7e db d8 d8 d8 7e 1b 1b 1b     .......~....~...
     9a7:	db 7e 18 09 0c 18 0a 01 00 73 00 db 00 de 00 76     .~.......s.....v
     9b7:	00 0c 00 0c 00 18 00 18 00 37 00 3d 80 6d 80 67     .........7.=.m.g
     9c7:	00 09 0d 1a 0a 01 00 38 00 6c 00 6c 00 6c 00 78     .......8.l.l.l.x
     9d7:	00 30 00 70 00 d8 00 cd 80 c7 00 c6 00 ef 00 79     .0.p...........y
     9e7:	80 02 05 05 0a 04 08 c0 c0 c0 c0 80 05 0d 0d 0a     ................
     9f7:	03 00 18 30 60 60 c0 c0 c0 c0 c0 60 60 30 18 05     ...0``.....``0..
     a07:	0d 0d 0a 02 00 c0 60 30 30 18 18 18 18 18 30 30     ......`00.....00
     a17:	60 c0 08 07 07 0a 01 03 66 66 3c ff 3c 66 66 08     `.......ff<.<ff.
     a27:	07 07 0a 01 03 18 18 18 ff 18 18 18 04 03 03 0a     ................
     a37:	03 ff 70 70 e0 08 01 01 0a 01 06 ff 03 03 03 0a     ..pp............
     a47:	04 00 e0 e0 e0 07 0c 0c 0a 02 00 06 06 0c 0c 18     ................
     a57:	18 30 30 60 60 c0 c0 08 0d 0d 0a 01 00 18 3c 66     .00``.........<f
     a67:	66 c3 c3 c3 c3 c3 66 66 3c 18 08 0d 0d 0a 01 00     f.....ff<.......
     a77:	18 38 78 d8 18 18 18 18 18 18 18 18 ff 08 0d 0d     .8x.............
     a87:	0a 01 00 3c 66 c3 c3 03 03 06 1c 30 60 c0 c0 ff     ...<f......0`...
     a97:	08 0d 0d 0a 01 00 3c 66 c3 c3 03 06 1c 06 03 c3     ......<f........
     aa7:	c3 66 3c 08 0d 0d 0a 01 00 02 06 0e 1e 36 66 c6     .f<..........6f.
     ab7:	c6 ff 06 06 06 06 08 0d 0d 0a 01 00 ff c0 c0 c0     ................
     ac7:	c0 dc e6 03 03 03 c3 66 3c 08 0d 0d 0a 01 00 3c     .......f<......<
     ad7:	66 c2 c0 c0 dc e6 c3 c3 c3 c3 66 3c 08 0d 0d 0a     f.........f<....
     ae7:	01 00 ff 03 03 06 06 0c 0c 18 18 30 30 60 60 08     ...........00``.
     af7:	0d 0d 0a 01 00 3c 66 c3 c3 c3 66 3c 66 c3 c3 c3     .....<f...f<f...
     b07:	66 3c 08 0d 0d 0a 01 00 3c 66 c3 c3 c3 c3 67 3b     f<......<f....g;
     b17:	03 03 43 66 3c 03 08 08 0a 04 00 e0 e0 00 00 00     ..Cf<...........
     b27:	00 e0 e0 04 09 09 0a 03 ff 70 70 00 00 00 00 70     .........pp....p
     b37:	70 e0 07 0d 0d 0a 01 00 02 06 0c 18 30 60 c0 60     p...........0`.`
     b47:	30 18 0c 06 02 08 06 06 0a 01 03 ff 00 00 00 00     0...............
     b57:	ff 07 0d 0d 0a 02 00 80 c0 60 30 18 0c 06 0c 18     .........`0.....
     b67:	30 60 c0 80 08 0d 0d 0a 01 00 3c 66 c3 c3 c3 06     0`........<f....
     b77:	0c 18 18 18 00 18 18 08 0d 0d 0a 01 00 3c 66 c3     .............<f.
     b87:	cf df db db db de cc c0 63 3e 08 0d 0d 0a 01 00     ........c>......
     b97:	18 3c 66 66 c3 c3 c3 ff c3 c3 c3 c3 c3 08 0d 0d     .<ff............
     ba7:	0a 01 00 f8 cc c6 c6 c6 cc fc c6 c3 c3 c3 c6 fc     ................
     bb7:	08 0d 0d 0a 01 00 3c 66 c3 c0 c0 c0 c0 c0 c0 c0     ......<f........
     bc7:	c3 66 3c 08 0d 0d 0a 01 00 fc c6 c3 c3 c3 c3 c3     .f<.............
     bd7:	c3 c3 c3 c3 c6 fc 08 0d 0d 0a 01 00 ff c0 c0 c0     ................
     be7:	c0 c0 fc c0 c0 c0 c0 c0 ff 08 0d 0d 0a 01 00 ff     ................
     bf7:	c0 c0 c0 c0 c0 fc c0 c0 c0 c0 c0 c0 08 0d 0d 0a     ................
     c07:	01 00 3c 66 c3 c0 c0 c0 cf c3 c3 c3 c3 67 3d 08     ..<f.........g=.
     c17:	0d 0d 0a 01 00 c3 c3 c3 c3 c3 c3 ff c3 c3 c3 c3     ................
     c27:	c3 c3 08 0d 0d 0a 01 00 ff 18 18 18 18 18 18 18     ................
     c37:	18 18 18 18 ff 09 0d 1a 0a 01 00 1f 80 06 00 06     ................
     c47:	00 06 00 06 00 06 00 06 00 06 00 06 00 c6 00 c6     ................
     c57:	00 6c 00 38 00 08 0d 0d 0a 01 00 c3 c3 c6 c6 cc     .l.8............
     c67:	cc f8 cc cc c6 c6 c3 c3 08 0d 0d 0a 01 00 c0 c0     ................
     c77:	c0 c0 c0 c0 c0 c0 c0 c0 c0 c0 ff 08 0d 0d 0a 01     ................
     c87:	00 c3 c3 e7 e7 ff db db db db c3 c3 c3 c3 08 0d     ................
     c97:	0d 0a 01 00 c3 e3 e3 f3 f3 db db cf cf c7 c7 c3     ................
     ca7:	c3 08 0d 0d 0a 01 00 3c 66 c3 c3 c3 c3 c3 c3 c3     .......<f.......
     cb7:	c3 c3 66 3c 08 0d 0d 0a 01 00 fc c6 c3 c3 c3 c3     ..f<............
     cc7:	c6 fc c0 c0 c0 c0 c0 08 0e 0e 0a 01 ff 3c 66 c3     .............<f.
     cd7:	c3 c3 c3 c3 c3 c3 db cf 66 3e 03 08 0d 0d 0a 01     ........f>......
     ce7:	00 fc c6 c3 c3 c3 c3 c6 fc cc c6 c6 c3 c3 08 0d     ................
     cf7:	0d 0a 01 00 3c 66 c3 c0 c0 60 3c 06 03 03 c3 66     ....<f...`<....f
     d07:	3c 08 0d 0d 0a 01 00 ff 18 18 18 18 18 18 18 18     <...............
     d17:	18 18 18 18 08 0d 0d 0a 01 00 c3 c3 c3 c3 c3 c3     ................
     d27:	c3 c3 c3 c3 c3 66 3c 08 0d 0d 0a 01 00 c3 c3 c3     .....f<.........
     d37:	c3 66 66 66 3c 3c 3c 18 18 18 08 0d 0d 0a 01 00     .fff<<<.........
     d47:	c3 c3 c3 c3 c3 db db db db e7 e7 c3 c3 08 0d 0d     ................
     d57:	0a 01 00 c3 c3 66 66 3c 3c 18 3c 3c 66 66 c3 c3     .....ff<<.<<ff..
     d67:	08 0d 0d 0a 01 00 c3 c3 66 66 3c 3c 18 18 18 18     ........ff<<....
     d77:	18 18 18 08 0d 0d 0a 01 00 ff 03 03 06 0c 0c 18     ................
     d87:	30 30 60 c0 c0 ff 06 0d 0d 0a 02 00 fc c0 c0 c0     00`.............
     d97:	c0 c0 c0 c0 c0 c0 c0 c0 fc 07 0c 0c 0a 02 00 c0     ................
     da7:	c0 60 60 30 30 18 18 0c 0c 06 06 06 0d 0d 0a 02     .``00...........
     db7:	00 fc 0c 0c 0c 0c 0c 0c 0c 0c 0c 0c 0c fc 08 04     ................
     dc7:	04 0a 01 09 18 3c 66 c3 09 01 02 0a 01 ff ff 80     .....<f.........
     dd7:	04 03 03 0a 03 0a c0 60 30 08 08 08 0a 01 00 3e     .......`0......>
     de7:	63 03 7f c3 c3 c3 7d 08 0d 0d 0a 01 00 c0 c0 c0     c.....}.........
     df7:	c0 c0 dc e6 c3 c3 c3 c3 e6 dc 08 08 08 0a 01 00     ................
     e07:	3e 63 c0 c0 c0 c0 63 3e 08 0d 0d 0a 01 00 03 03     >c....c>........
     e17:	03 03 03 3b 67 c3 c3 c3 c3 67 3b 08 08 08 0a 01     ...;g....g;.....
     e27:	00 3c 66 c3 ff c0 c0 63 3e 08 0d 0d 0a 01 00 1e     .<f....c>.......
     e37:	33 33 30 30 fc 30 30 30 30 30 30 30 08 0c 0c 0a     3300.0000000....
     e47:	01 fc 7d c7 c6 c6 c6 7c c0 7e c3 c3 c3 7e 08 0d     ..}....|.~...~..
     e57:	0d 0a 01 00 c0 c0 c0 c0 c0 dc e6 c3 c3 c3 c3 c3     ................
     e67:	c3 08 0b 0b 0a 01 00 18 18 00 78 18 18 18 18 18     ..........x.....
     e77:	18 ff 07 0f 0f 0a 02 fc 06 06 00 1e 06 06 06 06     ................
     e87:	06 06 06 c6 c6 c6 7c 08 0d 0d 0a 01 00 c0 c0 c0     ......|.........
     e97:	c0 c0 c6 cc d8 f0 f8 cc c6 c3 08 0d 0d 0a 01 00     ................
     ea7:	78 18 18 18 18 18 18 18 18 18 18 18 ff 08 08 08     x...............
     eb7:	0a 01 00 b6 ff db db db db db db 08 08 08 0a 01     ................
     ec7:	00 dc e6 c3 c3 c3 c3 c3 c3 08 08 08 0a 01 00 3c     ...............<
     ed7:	66 c3 c3 c3 c3 66 3c 08 0c 0c 0a 01 fc dc e6 c3     f....f<.........
     ee7:	c3 c3 c3 e6 dc c0 c0 c0 c0 08 0c 0c 0a 01 fc 3b     ...............;
     ef7:	67 c3 c3 c3 c3 67 3b 03 03 03 03 08 08 08 0a 01     g....g;.........
     f07:	00 de 73 60 60 60 60 60 60 08 08 08 0a 01 00 7e     ..s``````......~
     f17:	c3 c0 7e 03 03 c3 7e 08 0b 0b 0a 01 00 30 30 30     ..~...~......000
     f27:	fc 30 30 30 30 30 33 1e 08 08 08 0a 01 00 c3 c3     .000003.........
     f37:	c3 c3 c3 c3 67 3b 08 08 08 0a 01 00 c3 c3 66 66     ....g;........ff
     f47:	3c 3c 18 18 08 08 08 0a 01 00 c3 c3 c3 db db db     <<..............
     f57:	ff 66 08 08 08 0a 01 00 c3 66 3c 18 18 3c 66 c3     .f.......f<..<f.
     f67:	08 0c 0c 0a 01 fc c3 c3 c3 c3 c3 c3 67 3b 03 c3     ............g;..
     f77:	66 3c 07 08 08 0a 02 00 fe 06 0c 18 30 60 c0 fe     f<..........0`..
     f87:	08 0d 0d 0a 01 00 0f 18 18 18 18 18 f0 18 18 18     ................
     f97:	18 18 0f 02 0d 0d 0a 04 00 c0 c0 c0 c0 c0 c0 c0     ................
     fa7:	c0 c0 c0 c0 c0 c0 08 0d 0d 0a 01 00 f0 18 18 18     ................
     fb7:	18 18 0f 18 18 18 18 18 f0 08 03 03 0a 01 0a 73     ...............s
     fc7:	db ce ff ff ff ff ff ff ff ff ff ff ff ff ff ff     ................
     fd7:	ff ff ff ff ff ff ff ff ff ff ff ff ff ff ff ff     ................
     fe7:	ff ff ff 00 00 00 0a 00 10 02 0d 0d 0a 04 00 c0     ................
     ff7:	c0 00 c0 c0 c0 c0 c0 c0 c0 c0 c0 c0 07 0c 0c 0a     ................
    1007:	01 00 18 18 3c 66 c2 c0 c0 c2 66 3c 18 18 09 0c     ....<f....f<....
    1017:	18 0a 01 00 1e 00 33 00 33 00 30 00 30 00 fc 00     ......3.3.0.0...
    1027:	30 00 30 00 30 00 f8 00 ad 80 e7 00 09 09 12 0a     0.0.0...........
    1037:	00 01 80 80 dd 80 7f 00 63 00 63 00 63 00 7f 00     ........c.c.c...
    1047:	dd 80 80 80 08 0b 0b 0a 01 00 81 c3 66 3c 7e 18     ............f<~.
    1057:	7e 18 18 18 18 02 0d 0d 0a 04 00 c0 c0 c0 c0 c0     ~...............
    1067:	00 00 00 c0 c0 c0 c0 c0 08 0d 0d 0a 01 00 3c 66     ..............<f
    1077:	c6 60 78 cc 66 33 1e 06 63 66 3c 06 02 02 0a 02     .`x.f3..cf<.....
    1087:	0b cc cc 08 0b 0b 0a 01 00 3c 66 c3 bd a5 a1 a5     .........<f.....
    1097:	bd c3 66 3c 08 09 09 0a 01 04 3e 43 03 7f c3 c3     ..f<......>C....
    10a7:	7d 00 ff 09 0b 16 0a 00 00 04 80 0d 80 1b 00 36     }..............6
    10b7:	00 6c 00 d8 00 6c 00 36 00 1b 00 0d 80 04 80 08     .l...l.6........
    10c7:	04 04 0a 01 04 ff ff 03 03 06 01 01 0a 02 06 fc     ................
    10d7:	08 0b 0b 0a 01 00 3c 66 c3 bd a5 bd a9 ad c3 66     ......<f.......f
    10e7:	3c 08 01 01 0a 01 0d ff 06 06 06 0a 02 07 30 78     <.............0x
    10f7:	cc cc 78 30 08 07 07 0a 01 02 18 18 ff 18 18 00     ..x0............
    1107:	ff 05 07 07 0a 02 06 70 d8 18 30 60 c0 f8 05 07     .......p..0`....
    1117:	07 0a 02 06 70 d8 18 30 18 d8 70 04 03 03 0a 03     ....p..0..p.....
    1127:	0a 30 60 c0 07 0a 0a 0a 01 fd c6 c6 c6 c6 c6 ee     .0`.............
    1137:	fa c0 c0 c0 08 0d 0d 0a 01 00 7f ff fb fb fb 7b     ...............{
    1147:	1b 1b 1b 1b 1b 1b 1b 03 03 03 0a 04 05 e0 e0 e0     ................
    1157:	05 04 04 0a 02 fc 30 18 d8 70 04 07 07 0a 02 06     ......0..p......
    1167:	60 e0 60 60 60 60 f0 07 09 09 0a 01 04 38 6c c6     `.````.......8l.
    1177:	c6 c6 6c 38 00 fe 09 0b 16 0a 01 00 90 00 d8 00     ..l8............
    1187:	6c 00 36 00 1b 00 0d 80 1b 00 36 00 6c 00 d8 00     l.6.......6.l...
    1197:	90 00 08 0c 0c 0a 01 01 40 c0 41 42 e4 08 12 26     ........@.AB...&
    11a7:	4a 9e 02 02 08 0c 0c 0a 01 01 40 c0 41 42 e4 08     J.........@.AB..
    11b7:	16 29 41 82 04 0f 08 0c 0c 0a 01 01 e0 10 61 12     .)A...........a.
    11c7:	e4 08 12 26 4a 9f 02 02 08 0d 0d 0a 01 00 18 18     ...&J...........
    11d7:	00 18 18 18 30 60 c3 c3 c3 66 3c 08 0f 0f 0a 01     ....0`...f<.....
    11e7:	00 60 30 18 00 18 3c 66 c3 c3 c3 ff c3 c3 c3 c3     .`0...<f........
    11f7:	08 0f 0f 0a 01 00 06 0c 18 00 18 3c 66 c3 c3 c3     ...........<f...
    1207:	ff c3 c3 c3 c3 08 0f 0f 0a 01 00 18 3c 66 00 18     ............<f..
    1217:	3c 66 c3 c3 c3 ff c3 c3 c3 c3 08 0f 0f 0a 01 00     <f..............
    1227:	32 7e 4c 00 18 3c 66 c3 c3 c3 ff c3 c3 c3 c3 08     2~L..<f.........
    1237:	0f 0f 0a 01 00 66 66 00 18 3c 66 66 c3 c3 c3 ff     .....ff..<ff....
    1247:	c3 c3 c3 c3 08 10 10 0a 01 00 3c 66 66 3c 00 18     ..........<ff<..
    1257:	3c 66 c3 c3 c3 ff c3 c3 c3 c3 08 0d 0d 0a 01 00     <f..............
    1267:	1f 3c 6c 6c cc cc ff cc cc cc cc cc cf 08 11 11     .<ll............
    1277:	0a 01 fc 3c 66 c3 c0 c0 c0 c0 c0 c0 c0 c3 66 3c     ...<f.........f<
    1287:	18 0c 6c 38 08 0f 0f 0a 01 00 60 30 18 00 ff c0     ..l8......`0....
    1297:	c0 c0 c0 fc c0 c0 c0 c0 ff 08 0f 0f 0a 01 00 0c     ................
    12a7:	18 30 00 ff c0 c0 c0 c0 fc c0 c0 c0 c0 ff 08 0f     .0..............
    12b7:	0f 0a 01 00 18 3c 66 00 ff c0 c0 c0 c0 fc c0 c0     .....<f.........
    12c7:	c0 c0 ff 08 0f 0f 0a 01 00 66 66 00 00 ff c0 c0     .........ff.....
    12d7:	c0 c0 fc c0 c0 c0 c0 ff 06 0f 0f 0a 02 00 60 30     ..............`0
    12e7:	18 00 fc 30 30 30 30 30 30 30 30 30 fc 06 0f 0f     ...000000000....
    12f7:	0a 02 00 18 30 60 00 fc 30 30 30 30 30 30 30 30     ....0`..00000000
    1307:	30 fc 06 0f 0f 0a 02 00 30 78 cc 00 fc 30 30 30     0.......0x...000
    1317:	30 30 30 30 30 30 fc 06 0f 0f 0a 02 00 cc cc 00     000000..........
    1327:	fc 30 30 30 30 30 30 30 30 30 30 fc 09 0d 1a 0a     .0000000000.....
    1337:	00 00 7e 00 63 00 61 80 61 80 61 80 61 80 f9 80     ..~.c.a.a.a.a...
    1347:	61 80 61 80 61 80 61 80 63 00 7e 00 08 0f 0f 0a     a.a.a.a.c.~.....
    1357:	01 00 32 7e 4c 00 c3 e3 f3 f3 db db cf cf c7 c3     ..2~L...........
    1367:	c3 08 0f 0f 0a 01 00 30 18 0c 00 3c 66 c3 c3 c3     .......0...<f...
    1377:	c3 c3 c3 c3 66 3c 08 0f 0f 0a 01 00 0c 18 30 00     ....f<........0.
    1387:	3c 66 c3 c3 c3 c3 c3 c3 c3 66 3c 08 0f 0f 0a 01     <f.......f<.....
    1397:	00 18 3c 66 00 3c 66 c3 c3 c3 c3 c3 c3 c3 66 3c     ..<f.<f.......f<
    13a7:	08 0f 0f 0a 01 00 32 7e 4c 00 3c 66 c3 c3 c3 c3     ......2~L.<f....
    13b7:	c3 c3 c3 66 3c 08 0f 0f 0a 01 00 66 66 00 3c 66     ...f<......ff.<f
    13c7:	c3 c3 c3 c3 c3 c3 c3 c3 66 3c 07 08 08 0a 01 00     ........f<......
    13d7:	82 c6 6c 38 38 6c c6 82 08 0f 0f 0a 01 ff 01 3e     ..l88l.........>
    13e7:	66 c7 c7 cb cb cb d3 d3 d3 e3 66 7c 80 08 0f 0f     f.........f|....
    13f7:	0a 01 00 30 18 0c 00 c3 c3 c3 c3 c3 c3 c3 c3 c3     ...0............
    1407:	66 3c 08 0f 0f 0a 01 00 0c 18 30 00 c3 c3 c3 c3     f<........0.....
    1417:	c3 c3 c3 c3 c3 66 3c 08 0f 0f 0a 01 00 18 3c 66     .....f<.......<f
    1427:	00 c3 c3 c3 c3 c3 c3 c3 c3 c3 66 3c 08 0f 0f 0a     ..........f<....
    1437:	01 00 66 66 00 c3 c3 c3 c3 c3 c3 c3 c3 c3 c3 66     ..ff...........f
    1447:	3c 08 0f 0f 0a 01 00 0c 18 30 00 c3 c3 66 66 3c     <........0...ff<
    1457:	3c 18 18 18 18 18 07 0d 0d 0a 02 00 c0 c0 c0 fc     <...............
    1467:	c6 c6 c6 c6 c6 fc c0 c0 c0 08 0d 0d 0a 01 00 1c     ................
    1477:	36 63 63 66 ec 6c 66 63 63 63 66 6c 08 0c 0c 0a     6ccf.lfcccfl....
    1487:	01 00 30 18 0c 00 7e c3 03 7f c3 c3 c3 7d 08 0c     ..0...~......}..
    1497:	0c 0a 01 00 0c 18 30 00 7e c3 03 7f c3 c3 c3 7d     ......0.~......}
    14a7:	08 0c 0c 0a 01 00 18 3c 66 00 7e c3 03 7f c3 c3     .......<f.~.....
    14b7:	c3 7d 08 0c 0c 0a 01 00 32 7e 4c 00 7e c3 03 7f     .}......2~L.~...
    14c7:	c3 c3 c3 7d 08 0b 0b 0a 01 00 66 66 00 7e c3 03     ...}......ff.~..
    14d7:	7f c3 c3 c3 7d 08 0d 0d 0a 01 00 3c 66 66 3c 00     ....}......<ff<.
    14e7:	7e c3 03 7f c3 c3 c3 7d 08 08 08 0a 01 00 76 9b     ~......}......v.
    14f7:	1b 1e 78 d8 d9 6e 08 0c 0c 0a 01 fc 3e 63 c0 c0     ..x..n......>c..
    1507:	c0 c0 63 3e 18 0c 6c 38 08 0c 0c 0a 01 00 60 30     ..c>..l8......`0
    1517:	18 00 3c 66 c3 ff c0 c0 63 3e 08 0c 0c 0a 01 00     ..<f....c>......
    1527:	06 0c 18 00 3c 66 c3 ff c0 c0 63 3e 08 0c 0c 0a     ....<f....c>....
    1537:	01 00 18 3c 66 00 3c 66 c3 ff c0 c0 63 3e 08 0b     ...<f.<f....c>..
    1547:	0b 0a 01 00 66 66 00 3c 66 c3 ff c0 c0 63 3e 08     ....ff.<f....c>.
    1557:	0c 0c 0a 01 00 60 30 18 00 78 18 18 18 18 18 18     .....`0..x......
    1567:	ff 08 0c 0c 0a 01 00 0c 18 30 00 78 18 18 18 18     .........0.x....
    1577:	18 18 ff 08 0c 0c 0a 01 00 18 3c 66 00 78 18 18     ..........<f.x..
    1587:	18 18 18 18 ff 08 0b 0b 0a 01 00 66 66 00 78 18     ...........ff.x.
    1597:	18 18 18 18 18 ff 08 0d 0d 0a 01 00 88 d8 70 70     ..............pp
    15a7:	d8 8c 3e 67 c3 c3 c3 66 3c 08 0c 0c 0a 01 00 32     ..>g...f<......2
    15b7:	7e 4c 00 dc e6 c3 c3 c3 c3 c3 c3 08 0c 0c 0a 01     ~L..............
    15c7:	00 60 30 18 00 3c 66 c3 c3 c3 c3 66 3c 08 0c 0c     .`0..<f....f<...
    15d7:	0a 01 00 06 0c 18 00 3c 66 c3 c3 c3 c3 66 3c 08     .......<f....f<.
    15e7:	0c 0c 0a 01 00 18 3c 66 00 3c 66 c3 c3 c3 c3 66     ......<f.<f....f
    15f7:	3c 08 0c 0c 0a 01 00 32 7e 4c 00 3c 66 c3 c3 c3     <......2~L.<f...
    1607:	c3 66 3c 08 0b 0b 0a 01 00 66 66 00 3c 66 c3 c3     .f<......ff.<f..
    1617:	c3 c3 66 3c 08 0a 0a 0a 01 01 18 18 00 00 ff ff     ..f<............
    1627:	00 00 18 18 08 0a 0a 0a 01 ff 01 3e 66 cb cb d3     ...........>f...
    1637:	d3 66 7c 80 08 0c 0c 0a 01 00 30 18 0c 00 c3 c3     .f|.......0.....
    1647:	c3 c3 c3 c3 67 3b 08 0c 0c 0a 01 00 06 0c 18 00     ....g;..........
    1657:	c3 c3 c3 c3 c3 c3 67 3b 08 0c 0c 0a 01 00 18 3c     ......g;.......<
    1667:	66 00 c3 c3 c3 c3 c3 c3 67 3b 08 0b 0b 0a 01 00     f.......g;......
    1677:	66 66 00 c3 c3 c3 c3 c3 c3 67 3b 08 10 10 0a 01     ff.......g;.....
    1687:	fc 0c 18 30 00 c3 c3 c3 c3 c3 c3 67 3b 03 c3 66     ...0.......g;..f
    1697:	3c 07 11 11 0a 02 fc c0 c0 c0 c0 c0 c0 f8 cc c6     <...............
    16a7:	c6 c6 cc f8 c0 c0 c0 c0 08 0f 0f 0a 01 fc 66 66     ..............ff
    16b7:	00 c3 c3 c3 c3 c3 c3 67 3b 03 c3 66 3c              .......g;..f<

000016c4 <u8g_font_04b_24>:
    16c4:	01 05 06 00 ff 05 00 fa 01 f1 20 ff 00 05 ff 05     .......... .....
    16d4:	00 02 00 20 02 15 25 80 80 80 00 80 05 32 42 a0     ... ..%......2B.
    16e4:	a0 02 35 45 40 e0 40 e0 40 02 35 45 60 c0 40 60     ..5E@.@.@.5E`.@`
    16f4:	c0 02 35 45 a0 20 40 80 a0 02 45 55 60 80 70 a0     ..5E. @...EU`.p.
    1704:	60 05 12 22 80 80 02 25 35 40 80 80 80 40 02 25     `.."...%5@...@.%
    1714:	35 80 40 40 40 80 04 33 43 a0 40 a0 03 33 43 40     5.@@@..3C.@..3C@
    1724:	e0 40 01 22 32 40 80 04 31 41 e0 02 11 21 80 02     .@."2@..1A...!..
    1734:	35 45 20 20 40 80 80 02 35 45 e0 a0 a0 a0 e0 02     5E  @...5E......
    1744:	25 35 c0 40 40 40 40 02 35 45 e0 20 e0 80 e0 02     %5.@@@@.5E. ....
    1754:	35 45 e0 20 e0 20 e0 02 35 45 a0 a0 a0 e0 20 02     5E. . ..5E.... .
    1764:	35 45 e0 80 e0 20 e0 02 35 45 80 e0 a0 a0 e0 02     5E... ..5E......
    1774:	35 45 e0 20 20 40 80 02 35 45 e0 a0 e0 a0 e0 02     5E.  @..5E......
    1784:	35 45 e0 a0 a0 e0 20 03 13 23 80 00 80 02 14 24     5E.... ..#.....$
    1794:	80 00 80 80 02 35 45 20 40 80 40 20 03 33 43 e0     .....5E @.@ .3C.
    17a4:	00 e0 02 35 45 80 40 20 40 80 02 35 45 e0 20 60     ...5E.@ @..5E. `
    17b4:	00 40 02 55 65 70 88 e8 a8 60 02 35 45 e0 a0 a0     .@.Uep...`.5E...
    17c4:	e0 a0 02 35 45 e0 a0 e0 a0 e0 02 35 45 e0 80 80     ...5E......5E...
    17d4:	80 e0 02 35 45 c0 a0 a0 a0 e0 02 35 45 e0 80 e0     ...5E......5E...
    17e4:	80 e0 02 35 45 e0 80 e0 80 80 02 35 45 e0 80 a0     ...5E......5E...
    17f4:	a0 e0 02 35 45 a0 a0 e0 a0 a0 02 15 25 80 80 80     ...5E.......%...
    1804:	80 80 02 35 45 20 20 a0 a0 e0 02 35 45 a0 a0 c0     ...5E  ....5E...
    1814:	a0 a0 02 35 45 80 80 80 80 e0 02 35 45 a0 e0 a0     ...5E......5E...
    1824:	a0 a0 02 35 45 e0 a0 a0 a0 a0 02 35 45 e0 a0 a0     ...5E......5E...
    1834:	a0 e0 02 35 45 e0 a0 a0 e0 80 01 36 46 e0 a0 a0     ...5E......6F...
    1844:	a0 e0 40 02 35 45 e0 a0 a0 c0 a0 02 35 45 e0 80     ..@.5E......5E..
    1854:	e0 20 e0 02 35 45 e0 40 40 40 40 02 35 45 a0 a0     . ..5E.@@@@.5E..
    1864:	a0 a0 e0 02 35 45 a0 a0 a0 a0 c0 02 35 45 a0 a0     ....5E......5E..
    1874:	a0 e0 a0 02 35 45 a0 a0 40 a0 a0 02 35 45 a0 a0     ....5E..@...5E..
    1884:	40 40 40 02 35 45 e0 20 40 80 e0 02 25 35 c0 80     @@@.5E. @...%5..
    1894:	80 80 c0 02 35 45 80 80 40 20 20 02 25 35 c0 40     ....5E..@  .%5.@
    18a4:	40 40 c0 05 32 42 40 a0 02 31 41 e0 05 22 32 80     @@..2B@..1A.."2.
    18b4:	40 02 35 45 40 a0 a0 e0 a0 02 35 45 c0 a0 c0 a0     @.5E@.....5E....
    18c4:	c0 02 35 45 60 80 80 80 60 02 35 45 c0 a0 a0 a0     ..5E`...`.5E....
    18d4:	c0 02 35 45 60 80 e0 80 60 02 35 45 60 80 e0 80     ..5E`...`.5E`...
    18e4:	80 02 35 45 60 80 a0 a0 60 02 35 45 a0 a0 e0 a0     ..5E`...`.5E....
    18f4:	a0 02 15 25 80 80 80 80 80 02 35 45 20 20 a0 a0     ...%......5E  ..
    1904:	40 02 35 45 a0 a0 c0 a0 a0 02 35 45 80 80 80 80     @.5E......5E....
    1914:	60 02 35 45 a0 e0 a0 a0 a0 02 35 45 c0 a0 a0 a0     `.5E......5E....
    1924:	a0 02 35 45 40 a0 a0 a0 40 02 35 45 c0 a0 a0 c0     ..5E@...@.5E....
    1934:	80 01 36 46 40 a0 a0 a0 40 40 02 35 45 c0 a0 a0     ..6F@...@@.5E...
    1944:	c0 a0 02 35 45 60 80 40 20 c0 02 35 45 e0 40 40     ...5E`.@ ..5E.@@
    1954:	40 40 02 35 45 a0 a0 a0 a0 40 02 35 45 a0 a0 a0     @@.5E....@.5E...
    1964:	a0 c0 02 35 45 a0 a0 a0 e0 a0 02 35 45 a0 a0 40     ...5E......5E..@
    1974:	a0 a0 02 35 45 a0 a0 40 40 40 02 35 45 e0 20 40     ...5E..@@@.5E. @
    1984:	80 e0 02 35 45 60 40 c0 40 60 02 15 25 80 80 80     ...5E`@.@`..%...
    1994:	80 80 02 35 45 c0 40 60 40 c0 06 21 31 c0 ff ff     ...5E.@`@..!1...
    19a4:	ff ff ff ff ff ff ff ff ff ff ff ff ff ff ff ff     ................
    19b4:	ff ff ff ff ff ff ff ff ff ff ff ff ff ff ff ff     ................
    19c4:	02 25 35 80 40 40 40 40 02 35 45 a0 a0 a0 60 20     .%5.@@@@.5E...` 
    19d4:	02 35 45 c0 20 c0 20 c0 ff ff ff 02 35 45 80 c0     .5E. . .....5E..
    19e4:	a0 a0 40 ff ff 02 35 45 40 a0 a0 60 20 ff ff ff     ..@...5E@..` ...
    19f4:	ff ff ff ff ff ff ff ff 02 35 45 e0 20 20 40 80     .........5E.  @.
    1a04:	ff ff ff 02 35 45 40 a0 a0 a0 40 ff ff ff ff ff     ....5E@...@.....
    1a14:	ff ff ff ff ff ff ff ff ff ff ff ff ff ff ff ff     ................
    1a24:	ff ff ff ff ff ff ff ff ff ff ff ff ff ff ff ff     ................
    1a34:	ff ff ff ff ff ff ff ff ff ff ff ff ff ff ff ff     ................
    1a44:	ff ff ff ff ff ff ff ff ff ff ff ff ff ff ff ff     ................

00001a54 <_ZZ22showInputVoltageScreenvE3__c_1>:
    1a54:	28 25 75 53 29 00                                   (%uS).

00001a5a <_ZZ22showInputVoltageScreenvE3__c_0>:
    1a5a:	25 73 56 00                                         %sV.

00001a5e <_ZZ22showInputVoltageScreenvE3__c>:
    1a5e:	d0 9d d0 90 d0 9f d0 a0 d0 af d0 96 d0 95 d0 9d     ................
    1a6e:	d0 98 d0 95 00                                      .....

00001a73 <_ZZ21showMavlinkDataScreenvE3__c_8>:
    1a73:	43 55 52 52 45 4e 54 3a 25 73 41 00                 CURRENT:%sA.

00001a7f <_ZZ21showMavlinkDataScreenvE3__c_7>:
    1a7f:	56 4f 4c 54 41 47 45 3a 25 73 56 00                 VOLTAGE:%sV.

00001a8b <_ZZ21showMavlinkDataScreenvE3__c_6>:
    1a8b:	52 53 53 49 3a 25 75 00                             RSSI:%u.

00001a93 <_ZZ21showMavlinkDataScreenvE3__c_5>:
    1a93:	53 50 45 45 44 3a 25 75 6b 6d 2f 68 00              SPEED:%ukm/h.

00001aa0 <_ZZ21showMavlinkDataScreenvE3__c_4>:
    1aa0:	41 4c 54 3a 25 75 6d 00                             ALT:%um.

00001aa8 <_ZZ21showMavlinkDataScreenvE3__c_3>:
    1aa8:	53 41 54 3a 25 75 28 4e 6f 29 2c 48 44 47 3a 25     SAT:%u(No),HDG:%
    1ab8:	75 00                                               u.

00001aba <_ZZ21showMavlinkDataScreenvE3__c_2>:
    1aba:	53 41 54 3a 25 75 28 33 44 29 2c 48 44 47 3a 25     SAT:%u(3D),HDG:%
    1aca:	75 00                                               u.

00001acc <_ZZ21showMavlinkDataScreenvE3__c_1>:
    1acc:	53 41 54 3a 25 75 28 32 44 29 2c 48 44 47 3a 25     SAT:%u(2D),HDG:%
    1adc:	75 00                                               u.

00001ade <_ZZ21showMavlinkDataScreenvE3__c_0>:
    1ade:	4c 4f 4e 3a 25 73 00                                LON:%s.

00001ae5 <_ZZ21showMavlinkDataScreenvE3__c>:
    1ae5:	4c 41 54 3a 25 73 00                                LAT:%s.

00001aec <_ZZ22showLastSavedPosScreenvE3__c_3>:
    1aec:	48 44 47 3a 25 75 00                                HDG:%u.

00001af3 <_ZZ22showLastSavedPosScreenvE3__c_2>:
    1af3:	4c 4f 4e 3a 25 73 00                                LON:%s.

00001afa <_ZZ22showLastSavedPosScreenvE3__c_1>:
    1afa:	4c 41 54 3a 25 73 00                                LAT:%s.

00001b01 <_ZZ22showLastSavedPosScreenvE3__c_0>:
    1b01:	d0 9f d0 be d1 81 d0 bb d0 b5 d0 b4 d0 bd d0 b8     ................
    1b11:	d0 b5 20 d0 ba d0 be d0 be d1 80 d0 b4 d0 b8 d0     .. .............
    1b21:	bd d0 b0 d1 82 d1 8b 00                             ........

00001b29 <_ZZ22showLastSavedPosScreenvE3__c>:
    1b29:	d0 9e d0 96 d0 98 d0 94 d0 90 d0 9d d0 98 d0 95     ................
    1b39:	20 4d 41 56 4c 49 4e 4b 00                           MAVLINK.

00001b42 <_ZZ16showSplashScreenvE3__c_2>:
    1b42:	62 79 20 73 61 6b 68 70 69 6c 6f 74 73 2e 72 75     by sakhpilots.ru
	...

00001b53 <_ZZ16showSplashScreenvE3__c_1>:
    1b53:	43 4f 4d 50 41 4e 49 4f 4e 00                       COMPANION.

00001b5d <_ZZ16showSplashScreenvE3__c_0>:
    1b5d:	51 43 5a 45 4b 00                                   QCZEK.

00001b63 <_ZZ16showSplashScreenvE3__c>:
    1b63:	34 33 33 20 4d 48 7a 20 28 50 50 4d 29 00           433 MHz (PPM).

00001b71 <_ZZ14showLockScreenvE3__c_3>:
    1b71:	d0 9f d0 b8 d1 82 d0 b0 d0 bd d0 b8 d0 b5 3a 25     ..............:%
    1b81:	73 56 00                                            sV.

00001b84 <_ZZ14showLockScreenvE3__c_2>:
    1b84:	d0 b7 d0 b0 d0 bf d1 83 d1 81 d0 ba d0 b0 20 d0     .............. .
    1b94:	bf d0 b5 d1 80 d0 b5 d0 b4 d0 b0 d1 82 d1 87 d0     ................
    1ba4:	b8 d0 ba d0 b0 2e 00                                .......

00001bab <_ZZ14showLockScreenvE3__c_1>:
    1bab:	d0 ba d0 bd d0 be d0 bf d0 ba d1 83 20 33 20 d1     ............ 3 .
    1bbb:	81 d0 b5 d0 ba d1 83 d0 bd d0 b4 d1 8b 20 d0 b4     ............. ..
    1bcb:	d0 bb d1 8f 00                                      .....

00001bd0 <_ZZ14showLockScreenvE3__c_0>:
    1bd0:	d0 9d d0 b0 d0 b6 d0 bc d0 b8 d1 82 d0 b5 20 d0     .............. .
    1be0:	b8 20 d1 83 d0 b4 d0 b5 d1 80 d0 b6 d0 b8 d0 b2     . ..............
    1bf0:	d0 b0 d0 b9 d1 82 d0 b5 00                          .........

00001bf9 <_ZZ14showLockScreenvE3__c>:
    1bf9:	21 21 21 d0 9f d0 a0 d0 9e d0 92 d0 95 d0 a0 d0     !!!.............
    1c09:	ac 20 d0 90 d0 9d d0 a2 d0 95 d0 9d d0 9d d0 a3     . ..............
    1c19:	21 21 21 00                                         !!!.

00001c1d <_ZL7rus6x12>:
    1c1d:	00 06 0c 00 fe 07 01 98 03 2e 20 ff fe 0a fe 08     .......... .....
    1c2d:	fe 00 00 00 06 05 ff 01 07 07 06 02 00 80 80 80     ................
    1c3d:	80 80 00 80 03 03 03 06 01 05 a0 a0 a0 05 06 06     ................
    1c4d:	06 00 00 50 f8 50 50 f8 50 05 09 09 06 00 ff 20     ...P.PP.P...... 
    1c5d:	70 a8 a0 70 28 a8 70 20 05 07 07 06 00 00 c8 c8     p..p(.p ........
    1c6d:	10 20 40 98 98 05 07 07 06 00 00 40 a0 a0 40 a8     . @........@..@.
    1c7d:	90 68 01 03 03 06 02 05 80 80 80 03 09 09 06 01     .h..............
    1c8d:	ff 20 40 40 80 80 80 40 40 20 03 09 09 06 01 ff     . @@...@@ ......
    1c9d:	80 40 40 20 20 20 40 40 80 05 07 07 06 00 00 20     .@@   @@....... 
    1cad:	a8 70 20 70 a8 20 05 05 05 06 00 01 20 20 f8 20     .p p. ......  . 
    1cbd:	20 03 03 03 06 00 ff 60 60 c0 03 01 01 06 01 03      ......``.......
    1ccd:	e0 02 02 02 06 01 00 c0 c0 05 07 07 06 00 00 08     ................
    1cdd:	10 10 20 40 40 80 04 07 07 06 01 00 60 90 90 90     .. @@.......`...
    1ced:	90 90 60 03 07 07 06 01 00 40 c0 40 40 40 40 e0     ..`......@.@@@@.
    1cfd:	05 07 07 06 00 00 70 88 08 10 20 40 f8 05 07 07     ......p... @....
    1d0d:	06 00 00 f8 08 10 30 08 88 70 05 07 07 06 00 00     ......0..p......
    1d1d:	10 30 50 90 f8 10 10 05 07 07 06 00 00 f8 80 f0     .0P.............
    1d2d:	08 08 88 70 05 07 07 06 00 00 30 40 80 f0 88 88     ...p......0@....
    1d3d:	70 05 07 07 06 00 00 f8 08 10 10 20 20 20 05 07     p..........   ..
    1d4d:	07 06 00 00 70 88 88 70 88 88 70 05 07 07 06 00     ....p..p..p.....
    1d5d:	00 70 88 88 78 08 10 60 02 05 05 06 01 00 c0 c0     .p..x..`........
    1d6d:	00 c0 c0 03 06 06 06 00 ff 60 60 00 60 60 c0 03     .........``.``..
    1d7d:	05 05 06 01 01 20 40 80 40 20 05 03 03 06 00 02     ..... @.@ ......
    1d8d:	f8 00 f8 03 05 05 06 01 01 80 40 20 40 80 05 07     ..........@ @...
    1d9d:	07 06 00 00 70 88 10 20 20 00 20 05 07 07 06 00     ....p..  . .....
    1dad:	00 70 88 b8 a8 b8 80 70 05 07 07 06 00 00 70 88     .p.....p......p.
    1dbd:	88 f8 88 88 88 05 07 07 06 00 00 f0 48 48 70 48     ............HHpH
    1dcd:	48 f0 05 07 07 06 00 00 70 88 80 80 80 88 70 05     H.......p.....p.
    1ddd:	07 07 06 00 00 f0 48 48 48 48 48 f0 05 07 07 06     ......HHHHH.....
    1ded:	00 00 f8 80 80 f0 80 80 f8 05 07 07 06 00 00 f8     ................
    1dfd:	80 80 f0 80 80 80 05 07 07 06 00 00 70 88 80 80     ............p...
    1e0d:	98 88 70 05 07 07 06 00 00 88 88 88 f8 88 88 88     ..p.............
    1e1d:	03 07 07 06 01 00 e0 40 40 40 40 40 e0 05 07 07     .......@@@@@....
    1e2d:	06 00 00 38 10 10 10 10 90 60 05 07 07 06 00 00     ...8.....`......
    1e3d:	88 90 a0 c0 a0 90 88 05 07 07 06 00 00 80 80 80     ................
    1e4d:	80 80 80 f8 05 07 07 06 00 00 88 d8 a8 88 88 88     ................
    1e5d:	88 05 07 07 06 00 00 88 88 c8 a8 98 88 88 05 07     ................
    1e6d:	07 06 00 00 70 88 88 88 88 88 70 05 07 07 06 00     ....p.....p.....
    1e7d:	00 f0 88 88 f0 80 80 80 05 07 07 06 00 00 70 88     ..............p.
    1e8d:	88 88 a8 90 68 05 07 07 06 00 00 f0 88 88 f0 a0     ....h...........
    1e9d:	90 88 05 07 07 06 00 00 70 88 80 70 08 88 70 05     ........p..p..p.
    1ead:	07 07 06 00 00 f8 20 20 20 20 20 20 05 07 07 06     ......      ....
    1ebd:	00 00 88 88 88 88 88 88 70 05 07 07 06 00 00 88     ........p.......
    1ecd:	88 88 88 50 50 20 05 07 07 06 00 00 88 88 88 88     ...PP ..........
    1edd:	a8 a8 50 05 07 07 06 00 00 88 88 50 20 50 88 88     ..P........P P..
    1eed:	05 07 07 06 00 00 88 88 50 20 20 20 20 05 07 07     ........P    ...
    1efd:	06 00 00 f8 08 10 20 40 80 f8 03 09 09 06 01 ff     ...... @........
    1f0d:	e0 80 80 80 80 80 80 80 e0 05 07 07 06 00 00 80     ................
    1f1d:	40 40 20 10 10 08 03 09 09 06 01 ff e0 20 20 20     @@ ..........   
    1f2d:	20 20 20 20 e0 05 03 03 06 00 05 20 50 88 05 01         ....... P...
    1f3d:	01 06 00 fe f8 03 03 03 06 01 05 80 40 20 05 05     ............@ ..
    1f4d:	05 06 00 00 70 08 78 88 78 05 07 07 06 00 00 80     ....p.x.x.......
    1f5d:	80 f0 88 88 88 f0 05 05 05 06 00 00 70 88 80 88     ............p...
    1f6d:	70 05 07 07 06 00 00 08 08 78 88 88 88 78 05 05     p........x...x..
    1f7d:	05 06 00 00 70 88 f0 80 70 05 07 07 06 00 00 30     ....p...p......0
    1f8d:	48 40 e0 40 40 40 05 07 07 06 00 fe 70 88 88 88     H@.@@@......p...
    1f9d:	78 08 70 05 07 07 06 00 00 80 80 f0 88 88 88 88     x.p.............
    1fad:	03 07 07 06 01 00 40 00 c0 40 40 40 e0 04 09 09     ......@..@@@....
    1fbd:	06 01 fe 10 00 30 10 10 10 10 90 60 05 07 07 06     .....0.....`....
    1fcd:	00 00 80 80 88 90 e0 90 88 03 07 07 06 01 00 c0     ................
    1fdd:	40 40 40 40 40 e0 05 05 05 06 00 00 d0 a8 a8 a8     @@@@@...........
    1fed:	a8 05 05 05 06 00 00 b0 c8 88 88 88 05 05 05 06     ................
    1ffd:	00 00 70 88 88 88 70 05 07 07 06 00 fe f0 88 88     ..p...p.........
    200d:	88 f0 80 80 05 07 07 06 00 fe 78 88 88 88 78 08     ..........x...x.
    201d:	08 05 05 05 06 00 00 b0 c8 80 80 80 05 05 05 06     ................
    202d:	00 00 78 80 70 08 f0 05 07 07 06 00 00 20 20 f8     ..x.p........  .
    203d:	20 20 20 18 05 05 05 06 00 00 88 88 88 98 68 05        ...........h.
    204d:	05 05 06 00 00 88 88 88 50 20 05 05 05 06 00 00     ........P ......
    205d:	88 88 a8 a8 50 05 05 05 06 00 00 88 50 20 50 88     ....P.......P P.
    206d:	05 07 07 06 00 fe 88 88 88 50 20 40 80 05 05 05     .........P @....
    207d:	06 00 00 f8 10 20 40 f8 03 09 09 06 01 ff 20 40     ..... @....... @
    208d:	40 40 80 40 40 40 20 01 09 09 06 02 ff 80 80 80     @@.@@@ .........
    209d:	80 80 80 80 80 80 03 09 09 06 01 ff 80 40 40 40     .............@@@
    20ad:	20 40 40 40 80 05 03 03 06 00 02 48 a8 90 ff 05      @@@.......H....
    20bd:	07 07 06 00 fe f0 88 88 88 f0 80 80 05 05 05 06     ................
    20cd:	00 00 70 88 80 88 70 05 05 05 06 00 00 f8 20 20     ..p...p.......  
    20dd:	20 20 05 07 07 06 00 fe 88 88 88 88 78 08 70 05       ..........x.p.
    20ed:	09 09 06 00 fe 20 20 70 a8 a8 a8 70 20 20 05 05     .....  p...p  ..
    20fd:	05 06 00 00 88 50 20 50 88 05 07 07 06 00 fe 90     .....P P........
    210d:	90 90 90 f8 08 08 05 05 05 06 00 00 88 88 78 08     ..............x.
    211d:	08 05 05 05 06 00 00 a8 a8 a8 a8 f8 05 07 07 06     ................
    212d:	00 fe a8 a8 a8 a8 f8 08 08 05 05 05 06 00 00 c0     ................
    213d:	40 70 48 70 05 05 05 06 00 00 88 88 c8 a8 c8 04     @pHp............
    214d:	05 05 06 01 00 80 80 e0 90 e0 04 05 05 06 01 00     ................
    215d:	e0 10 70 10 e0 05 05 05 06 00 00 90 a8 e8 a8 90     ..p.............
    216d:	04 05 05 06 01 00 70 90 70 50 90 05 07 07 06 00     ......p.pP......
    217d:	00 70 88 88 f8 88 88 88 05 07 07 06 00 00 f0 80     .p..............
    218d:	80 f0 88 88 f0 05 07 07 06 00 00 f0 88 88 f0 88     ................
    219d:	88 f0 05 07 07 06 00 00 f8 80 80 80 80 80 80 05     ................
    21ad:	08 08 06 00 ff 30 50 50 50 50 50 f8 88 05 07 07     .....0PPPPP.....
    21bd:	06 00 00 f8 80 80 f0 80 80 f8 05 07 07 06 00 00     ................
    21cd:	a8 a8 70 20 70 a8 a8 05 07 07 06 00 00 70 88 08     ..p p........p..
    21dd:	70 08 88 70 05 07 07 06 00 00 88 88 98 a8 c8 88     p..p............
    21ed:	88 05 0a 0a 06 00 00 88 70 00 88 88 98 a8 c8 88     ........p.......
    21fd:	88 05 07 07 06 00 00 88 90 a0 c0 a0 90 88 05 07     ................
    220d:	07 06 00 00 38 48 48 48 48 48 88 05 07 07 06 00     ....8HHHHH......
    221d:	00 88 d8 a8 88 88 88 88 05 07 07 06 00 00 88 88     ................
    222d:	88 f8 88 88 88 05 07 07 06 00 00 70 88 88 88 88     ...........p....
    223d:	88 70 05 07 07 06 00 00 f8 88 88 88 88 88 88 05     .p..............
    224d:	07 07 06 00 00 f0 88 88 f0 80 80 80 05 07 07 06     ................
    225d:	00 00 70 88 80 80 80 88 70 05 07 07 06 00 00 f8     ..p.....p.......
    226d:	20 20 20 20 20 20 05 07 07 06 00 00 88 88 88 88           ..........
    227d:	78 08 70 05 07 07 06 00 00 20 70 a8 a8 a8 70 20     x.p...... p...p 
    228d:	05 07 07 06 00 00 88 88 50 20 50 88 88 05 09 09     ........P P.....
    229d:	06 00 fe 90 90 90 90 90 90 f8 08 08 05 07 07 06     ................
    22ad:	00 00 88 88 88 78 08 08 08 05 07 07 06 00 00 a8     .....x..........
    22bd:	a8 a8 a8 a8 a8 f8 05 09 09 06 00 fe a8 a8 a8 a8     ................
    22cd:	a8 a8 f8 08 08 05 07 07 06 00 00 c0 40 40 70 48     ............@@pH
    22dd:	48 70 05 07 07 06 00 00 88 88 88 c8 a8 a8 c8 04     Hp..............
    22ed:	07 07 06 01 00 80 80 80 e0 90 90 e0 05 07 07 06     ................
    22fd:	00 00 70 88 08 78 08 88 70 05 07 07 06 00 00 90     ..p..x..p.......
    230d:	a8 a8 e8 a8 a8 90 05 07 07 06 00 00 78 88 88 78     ............x..x
    231d:	28 48 88 05 05 05 06 00 00 70 08 78 88 78 05 07     (H.......p.x.x..
    232d:	07 06 00 00 70 80 f0 88 88 88 70 05 05 05 06 00     ....p.....p.....
    233d:	00 f0 88 f0 88 f0 05 05 05 06 00 00 f8 80 80 80     ................
    234d:	80 05 06 06 06 00 ff 30 50 50 50 f8 88 05 05 05     .......0PPP.....
    235d:	06 00 00 70 88 f0 80 70 05 05 05 06 00 00 a8 70     ...p...p.......p
    236d:	20 70 a8 05 05 05 06 00 00 70 88 30 88 70 05 05      p.......p.0.p..
    237d:	05 06 00 00 88 98 a8 c8 88 05 08 08 06 00 00 88     ................
    238d:	70 00 88 98 a8 c8 88 04 05 05 06 01 00 90 a0 c0     p...............
    239d:	a0 90 05 05 05 06 00 00 38 48 48 48 88 05 05 05     ........8HHH....
    23ad:	06 00 00 88 d8 a8 88 88 05 05 05 06 00 00 88 88     ................
    23bd:	f8 88 88 05 05 05 06 00 00 70 88 88 88 70 05 05     .........p...p..
    23cd:	05 06 00 00 f8 88 88 88 88 ff ff ff ff ff ff ff     ................
    23dd:	ff ff ff ff ff ff ff ff ff ff ff ff ff ff ff ff     ................
    23ed:	ff ff ff ff ff ff ff ff ff ff ff ff ff ff ff ff     ................
    23fd:	ff ff ff ff ff ff ff ff ff ff ff ff ff ff ff ff     ................
    240d:	ff ff ff ff ff ff ff ff ff                          .........

00002416 <_ZL10with_plane>:
	...
    2426:	00 00 00 0e 00 00 00 00 00 1f 00 00 00 00 80 3f     ...............?
    2436:	00 00 00 00 80 7f 00 00 00 00 80 ff 00 00 00 00     ................
    2446:	00 ff 01 00 00 00 00 ff 03 00 00 00 00 fe 0f 00     ................
    2456:	00 00 00 fc 1f 00 00 00 00 f8 3f 00 0f 00 00 f8     ..........?.....
    2466:	7f 80 0f 00 00 f0 ff e0 0f 00 00 e0 ff f3 0f 00     ................
    2476:	00 e0 ff ff 07 00 00 c0 ff ff 03 00 00 80 ff ff     ................
    2486:	03 00 00 00 ff ff 01 00 00 00 ff ff 00 00 00 00     ................
    2496:	fe ff 00 00 00 00 fc ff 01 00 00 00 fc ff 01 00     ................
    24a6:	00 00 f8 ff 03 00 00 00 f8 ff 07 00 00 00 fc ff     ................
    24b6:	0f 00 00 00 fe ff 1f 00 00 00 ff ff 3f 00 00 00     ............?...
    24c6:	3f ff 3f 00 00 80 1f fc 7f 00 38 c0 0f f8 ff 00     ?.?.......8.....
    24d6:	f8 e0 03 e0 ff 01 fc e1 01 c0 ff 03 f8 f3 00 80     ................
    24e6:	ff 07 f0 3f 00 00 fe 0f e0 1f 00 00 fc 1f e0 1f     ...?............
    24f6:	00 00 f0 1f c0 3f 00 00 e0 1f 80 7f 00 00 c0 0f     .....?..........
    2506:	00 ff 00 00 00 07 00 fe 00 00 00 00 00 fc 01 00     ................
    2516:	00 00 00 f0 01 00 00 00 00 e0 01 00 00 00 00 40     ...............@
	...

00002536 <__ctors_start>:
    2536:	c1 23       	and	r28, r17

00002538 <__ctors_end>:
    2538:	11 24       	eor	r1, r1
    253a:	1f be       	out	0x3f, r1	; 63
    253c:	cf ef       	ldi	r28, 0xFF	; 255
    253e:	d8 e0       	ldi	r29, 0x08	; 8
    2540:	de bf       	out	0x3e, r29	; 62
    2542:	cd bf       	out	0x3d, r28	; 61

00002544 <__do_copy_data>:
    2544:	12 e0       	ldi	r17, 0x02	; 2
    2546:	a0 e0       	ldi	r26, 0x00	; 0
    2548:	b1 e0       	ldi	r27, 0x01	; 1
    254a:	e6 e7       	ldi	r30, 0x76	; 118
    254c:	f8 e5       	ldi	r31, 0x58	; 88
    254e:	02 c0       	rjmp	.+4      	; 0x2554 <__do_copy_data+0x10>
    2550:	05 90       	lpm	r0, Z+
    2552:	0d 92       	st	X+, r0
    2554:	a8 32       	cpi	r26, 0x28	; 40
    2556:	b1 07       	cpc	r27, r17
    2558:	d9 f7       	brne	.-10     	; 0x2550 <__do_copy_data+0xc>

0000255a <__do_clear_bss>:
    255a:	25 e0       	ldi	r18, 0x05	; 5
    255c:	a8 e2       	ldi	r26, 0x28	; 40
    255e:	b2 e0       	ldi	r27, 0x02	; 2
    2560:	01 c0       	rjmp	.+2      	; 0x2564 <.do_clear_bss_start>

00002562 <.do_clear_bss_loop>:
    2562:	1d 92       	st	X+, r1

00002564 <.do_clear_bss_start>:
    2564:	a8 38       	cpi	r26, 0x88	; 136
    2566:	b2 07       	cpc	r27, r18
    2568:	e1 f7       	brne	.-8      	; 0x2562 <.do_clear_bss_loop>

0000256a <__do_global_ctors>:
    256a:	12 e1       	ldi	r17, 0x12	; 18
    256c:	cc e9       	ldi	r28, 0x9C	; 156
    256e:	d2 e1       	ldi	r29, 0x12	; 18
    2570:	04 c0       	rjmp	.+8      	; 0x257a <__do_global_ctors+0x10>
    2572:	21 97       	sbiw	r28, 0x01	; 1
    2574:	fe 01       	movw	r30, r28
    2576:	0e 94 aa 26 	call	0x4d54	; 0x4d54 <__tablejump2__>
    257a:	cb 39       	cpi	r28, 0x9B	; 155
    257c:	d1 07       	cpc	r29, r17
    257e:	c9 f7       	brne	.-14     	; 0x2572 <__do_global_ctors+0x8>
    2580:	0e 94 97 23 	call	0x472e	; 0x472e <main>
    2584:	0c 94 39 2c 	jmp	0x5872	; 0x5872 <_exit>

00002588 <__bad_interrupt>:
    2588:	0c 94 00 00 	jmp	0	; 0x0 <__vectors>

0000258c <_ZN6EEPROM5writeEjh>:
    258c:	f9 99       	sbic	0x1f, 1	; 31
    258e:	fe cf       	rjmp	.-4      	; 0x258c <_ZN6EEPROM5writeEjh>
    2590:	72 bd       	out	0x22, r23	; 34
    2592:	61 bd       	out	0x21, r22	; 33
    2594:	40 bd       	out	0x20, r20	; 32
    2596:	fa 9a       	sbi	0x1f, 2	; 31
    2598:	f9 9a       	sbi	0x1f, 1	; 31
    259a:	08 95       	ret

0000259c <_ZN6EEPROM8readByteEj>:
    259c:	f9 99       	sbic	0x1f, 1	; 31
    259e:	fe cf       	rjmp	.-4      	; 0x259c <_ZN6EEPROM8readByteEj>
    25a0:	72 bd       	out	0x22, r23	; 34
    25a2:	61 bd       	out	0x21, r22	; 33
    25a4:	f8 9a       	sbi	0x1f, 0	; 31
    25a6:	80 b5       	in	r24, 0x20	; 32
    25a8:	08 95       	ret

000025aa <_ZN6EEPROM9readFloatEj>:
    25aa:	df 92       	push	r13
    25ac:	ef 92       	push	r14
    25ae:	ff 92       	push	r15
    25b0:	0f 93       	push	r16
    25b2:	1f 93       	push	r17
    25b4:	cf 93       	push	r28
    25b6:	df 93       	push	r29
    25b8:	00 d0       	rcall	.+0      	; 0x25ba <_ZN6EEPROM9readFloatEj+0x10>
    25ba:	00 d0       	rcall	.+0      	; 0x25bc <_ZN6EEPROM9readFloatEj+0x12>
    25bc:	cd b7       	in	r28, 0x3d	; 61
    25be:	de b7       	in	r29, 0x3e	; 62
    25c0:	19 82       	std	Y+1, r1	; 0x01
    25c2:	1a 82       	std	Y+2, r1	; 0x02
    25c4:	1b 82       	std	Y+3, r1	; 0x03
    25c6:	1c 82       	std	Y+4, r1	; 0x04
    25c8:	8e 01       	movw	r16, r28
    25ca:	0f 5f       	subi	r16, 0xFF	; 255
    25cc:	1f 4f       	sbci	r17, 0xFF	; 255
    25ce:	7b 01       	movw	r14, r22
    25d0:	e0 1a       	sub	r14, r16
    25d2:	f1 0a       	sbc	r15, r17
    25d4:	84 e0       	ldi	r24, 0x04	; 4
    25d6:	d8 2e       	mov	r13, r24
    25d8:	d0 0e       	add	r13, r16
    25da:	b7 01       	movw	r22, r14
    25dc:	60 0f       	add	r22, r16
    25de:	71 1f       	adc	r23, r17
    25e0:	8a e4       	ldi	r24, 0x4A	; 74
    25e2:	95 e0       	ldi	r25, 0x05	; 5
    25e4:	0e 94 ce 12 	call	0x259c	; 0x259c <_ZN6EEPROM8readByteEj>
    25e8:	f8 01       	movw	r30, r16
    25ea:	81 93       	st	Z+, r24
    25ec:	8f 01       	movw	r16, r30
    25ee:	de 12       	cpse	r13, r30
    25f0:	f4 cf       	rjmp	.-24     	; 0x25da <_ZN6EEPROM9readFloatEj+0x30>
    25f2:	69 81       	ldd	r22, Y+1	; 0x01
    25f4:	7a 81       	ldd	r23, Y+2	; 0x02
    25f6:	8b 81       	ldd	r24, Y+3	; 0x03
    25f8:	9c 81       	ldd	r25, Y+4	; 0x04
    25fa:	0f 90       	pop	r0
    25fc:	0f 90       	pop	r0
    25fe:	0f 90       	pop	r0
    2600:	0f 90       	pop	r0
    2602:	df 91       	pop	r29
    2604:	cf 91       	pop	r28
    2606:	1f 91       	pop	r17
    2608:	0f 91       	pop	r16
    260a:	ff 90       	pop	r15
    260c:	ef 90       	pop	r14
    260e:	df 90       	pop	r13
    2610:	08 95       	ret

00002612 <_ZN6EEPROM9readInt16Ej>:
    2612:	0f 93       	push	r16
    2614:	1f 93       	push	r17
    2616:	cf 93       	push	r28
    2618:	df 93       	push	r29
    261a:	00 d0       	rcall	.+0      	; 0x261c <_ZN6EEPROM9readInt16Ej+0xa>
    261c:	cd b7       	in	r28, 0x3d	; 61
    261e:	de b7       	in	r29, 0x3e	; 62
    2620:	8b 01       	movw	r16, r22
    2622:	1a 82       	std	Y+2, r1	; 0x02
    2624:	19 82       	std	Y+1, r1	; 0x01
    2626:	8a e4       	ldi	r24, 0x4A	; 74
    2628:	95 e0       	ldi	r25, 0x05	; 5
    262a:	0e 94 ce 12 	call	0x259c	; 0x259c <_ZN6EEPROM8readByteEj>
    262e:	89 83       	std	Y+1, r24	; 0x01
    2630:	b8 01       	movw	r22, r16
    2632:	6f 5f       	subi	r22, 0xFF	; 255
    2634:	7f 4f       	sbci	r23, 0xFF	; 255
    2636:	8a e4       	ldi	r24, 0x4A	; 74
    2638:	95 e0       	ldi	r25, 0x05	; 5
    263a:	0e 94 ce 12 	call	0x259c	; 0x259c <_ZN6EEPROM8readByteEj>
    263e:	8a 83       	std	Y+2, r24	; 0x02
    2640:	89 81       	ldd	r24, Y+1	; 0x01
    2642:	9a 81       	ldd	r25, Y+2	; 0x02
    2644:	0f 90       	pop	r0
    2646:	0f 90       	pop	r0
    2648:	df 91       	pop	r29
    264a:	cf 91       	pop	r28
    264c:	1f 91       	pop	r17
    264e:	0f 91       	pop	r16
    2650:	08 95       	ret

00002652 <_ZN6EEPROM4saveEPhjj>:
    2652:	cf 92       	push	r12
    2654:	df 92       	push	r13
    2656:	ef 92       	push	r14
    2658:	ff 92       	push	r15
    265a:	0f 93       	push	r16
    265c:	1f 93       	push	r17
    265e:	cf 93       	push	r28
    2660:	df 93       	push	r29
    2662:	6c 01       	movw	r12, r24
    2664:	8b 01       	movw	r16, r22
    2666:	04 0f       	add	r16, r20
    2668:	15 1f       	adc	r17, r21
    266a:	eb 01       	movw	r28, r22
    266c:	79 01       	movw	r14, r18
    266e:	e6 1a       	sub	r14, r22
    2670:	f7 0a       	sbc	r15, r23
    2672:	b7 01       	movw	r22, r14
    2674:	6c 0f       	add	r22, r28
    2676:	7d 1f       	adc	r23, r29
    2678:	c0 17       	cp	r28, r16
    267a:	d1 07       	cpc	r29, r17
    267c:	29 f0       	breq	.+10     	; 0x2688 <_ZN6EEPROM4saveEPhjj+0x36>
    267e:	49 91       	ld	r20, Y+
    2680:	c6 01       	movw	r24, r12
    2682:	0e 94 c6 12 	call	0x258c	; 0x258c <_ZN6EEPROM5writeEjh>
    2686:	f5 cf       	rjmp	.-22     	; 0x2672 <_ZN6EEPROM4saveEPhjj+0x20>
    2688:	df 91       	pop	r29
    268a:	cf 91       	pop	r28
    268c:	1f 91       	pop	r17
    268e:	0f 91       	pop	r16
    2690:	ff 90       	pop	r15
    2692:	ef 90       	pop	r14
    2694:	df 90       	pop	r13
    2696:	cf 90       	pop	r12
    2698:	08 95       	ret

0000269a <u8g_DrawXBMP>:
    269a:	2f 92       	push	r2
    269c:	3f 92       	push	r3
    269e:	4f 92       	push	r4
    26a0:	5f 92       	push	r5
    26a2:	6f 92       	push	r6
    26a4:	7f 92       	push	r7
    26a6:	8f 92       	push	r8
    26a8:	9f 92       	push	r9
    26aa:	af 92       	push	r10
    26ac:	bf 92       	push	r11
    26ae:	cf 92       	push	r12
    26b0:	df 92       	push	r13
    26b2:	ef 92       	push	r14
    26b4:	ff 92       	push	r15
    26b6:	0f 93       	push	r16
    26b8:	1f 93       	push	r17
    26ba:	cf 93       	push	r28
    26bc:	df 93       	push	r29
    26be:	00 d0       	rcall	.+0      	; 0x26c0 <u8g_DrawXBMP+0x26>
    26c0:	cd b7       	in	r28, 0x3d	; 61
    26c2:	de b7       	in	r29, 0x3e	; 62
    26c4:	4c 01       	movw	r8, r24
    26c6:	16 2f       	mov	r17, r22
    26c8:	24 2e       	mov	r2, r20
    26ca:	32 2f       	mov	r19, r18
    26cc:	50 2e       	mov	r5, r16
    26ce:	39 83       	std	Y+1, r19	; 0x01
    26d0:	0e 94 cb 13 	call	0x2796	; 0x2796 <u8g_IsBBXIntersection>
    26d4:	39 81       	ldd	r19, Y+1	; 0x01
    26d6:	88 23       	and	r24, r24
    26d8:	09 f4       	brne	.+2      	; 0x26dc <u8g_DrawXBMP+0x42>
    26da:	48 c0       	rjmp	.+144    	; 0x276c <u8g_DrawXBMP+0xd2>
    26dc:	87 e0       	ldi	r24, 0x07	; 7
    26de:	83 0f       	add	r24, r19
    26e0:	c8 2e       	mov	r12, r24
    26e2:	c6 94       	lsr	r12
    26e4:	c6 94       	lsr	r12
    26e6:	c6 94       	lsr	r12
    26e8:	d1 2c       	mov	r13, r1
    26ea:	52 0c       	add	r5, r2
    26ec:	87 e0       	ldi	r24, 0x07	; 7
    26ee:	48 2e       	mov	r4, r24
    26f0:	41 0e       	add	r4, r17
    26f2:	83 2f       	mov	r24, r19
    26f4:	86 95       	lsr	r24
    26f6:	86 95       	lsr	r24
    26f8:	86 95       	lsr	r24
    26fa:	68 2e       	mov	r6, r24
    26fc:	71 2c       	mov	r7, r1
    26fe:	98 e0       	ldi	r25, 0x08	; 8
    2700:	89 9f       	mul	r24, r25
    2702:	10 0d       	add	r17, r0
    2704:	11 24       	eor	r1, r1
    2706:	34 2c       	mov	r3, r4
    2708:	33 0e       	add	r3, r19
    270a:	37 70       	andi	r19, 0x07	; 7
    270c:	3a 83       	std	Y+2, r19	; 0x02
    270e:	25 14       	cp	r2, r5
    2710:	69 f1       	breq	.+90     	; 0x276c <u8g_DrawXBMP+0xd2>
    2712:	57 01       	movw	r10, r14
    2714:	34 2d       	mov	r19, r4
    2716:	83 2d       	mov	r24, r3
    2718:	83 1b       	sub	r24, r19
    271a:	88 30       	cpi	r24, 0x08	; 8
    271c:	78 f0       	brcs	.+30     	; 0x273c <u8g_DrawXBMP+0xa2>
    271e:	f5 01       	movw	r30, r10
    2720:	04 91       	lpm	r16, Z
    2722:	22 e0       	ldi	r18, 0x02	; 2
    2724:	42 2d       	mov	r20, r2
    2726:	63 2f       	mov	r22, r19
    2728:	c4 01       	movw	r24, r8
    272a:	39 83       	std	Y+1, r19	; 0x01
    272c:	0e 94 ac 19 	call	0x3358	; 0x3358 <u8g_Draw8Pixel>
    2730:	ff ef       	ldi	r31, 0xFF	; 255
    2732:	af 1a       	sub	r10, r31
    2734:	bf 0a       	sbc	r11, r31
    2736:	39 81       	ldd	r19, Y+1	; 0x01
    2738:	38 5f       	subi	r19, 0xF8	; 248
    273a:	ed cf       	rjmp	.-38     	; 0x2716 <u8g_DrawXBMP+0x7c>
    273c:	f7 01       	movw	r30, r14
    273e:	e6 0d       	add	r30, r6
    2740:	f7 1d       	adc	r31, r7
    2742:	aa 80       	ldd	r10, Y+2	; 0x02
    2744:	aa 20       	and	r10, r10
    2746:	71 f0       	breq	.+28     	; 0x2764 <u8g_DrawXBMP+0xca>
    2748:	b4 90       	lpm	r11, Z
    274a:	01 2f       	mov	r16, r17
    274c:	b0 fe       	sbrs	r11, 0
    274e:	05 c0       	rjmp	.+10     	; 0x275a <u8g_DrawXBMP+0xc0>
    2750:	42 2d       	mov	r20, r2
    2752:	60 2f       	mov	r22, r16
    2754:	c4 01       	movw	r24, r8
    2756:	0e 94 a4 19 	call	0x3348	; 0x3348 <u8g_DrawPixel>
    275a:	0f 5f       	subi	r16, 0xFF	; 255
    275c:	aa 94       	dec	r10
    275e:	b6 94       	lsr	r11
    2760:	a1 10       	cpse	r10, r1
    2762:	f4 cf       	rjmp	.-24     	; 0x274c <u8g_DrawXBMP+0xb2>
    2764:	ec 0c       	add	r14, r12
    2766:	fd 1c       	adc	r15, r13
    2768:	23 94       	inc	r2
    276a:	d1 cf       	rjmp	.-94     	; 0x270e <u8g_DrawXBMP+0x74>
    276c:	0f 90       	pop	r0
    276e:	0f 90       	pop	r0
    2770:	df 91       	pop	r29
    2772:	cf 91       	pop	r28
    2774:	1f 91       	pop	r17
    2776:	0f 91       	pop	r16
    2778:	ff 90       	pop	r15
    277a:	ef 90       	pop	r14
    277c:	df 90       	pop	r13
    277e:	cf 90       	pop	r12
    2780:	bf 90       	pop	r11
    2782:	af 90       	pop	r10
    2784:	9f 90       	pop	r9
    2786:	8f 90       	pop	r8
    2788:	7f 90       	pop	r7
    278a:	6f 90       	pop	r6
    278c:	5f 90       	pop	r5
    278e:	4f 90       	pop	r4
    2790:	3f 90       	pop	r3
    2792:	2f 90       	pop	r2
    2794:	08 95       	ret

00002796 <u8g_IsBBXIntersection>:
    2796:	0f 93       	push	r16
    2798:	fc 01       	movw	r30, r24
    279a:	01 50       	subi	r16, 0x01	; 1
    279c:	04 0f       	add	r16, r20
    279e:	84 a9       	ldd	r24, Z+52	; 0x34
    27a0:	96 a9       	ldd	r25, Z+54	; 0x36
    27a2:	94 17       	cp	r25, r20
    27a4:	18 f0       	brcs	.+6      	; 0x27ac <u8g_IsBBXIntersection+0x16>
    27a6:	08 17       	cp	r16, r24
    27a8:	28 f4       	brcc	.+10     	; 0x27b4 <u8g_IsBBXIntersection+0x1e>
    27aa:	02 c0       	rjmp	.+4      	; 0x27b0 <u8g_IsBBXIntersection+0x1a>
    27ac:	08 17       	cp	r16, r24
    27ae:	50 f0       	brcs	.+20     	; 0x27c4 <u8g_IsBBXIntersection+0x2e>
    27b0:	04 17       	cp	r16, r20
    27b2:	40 f4       	brcc	.+16     	; 0x27c4 <u8g_IsBBXIntersection+0x2e>
    27b4:	21 50       	subi	r18, 0x01	; 1
    27b6:	26 0f       	add	r18, r22
    27b8:	83 a9       	ldd	r24, Z+51	; 0x33
    27ba:	95 a9       	ldd	r25, Z+53	; 0x35
    27bc:	96 17       	cp	r25, r22
    27be:	20 f4       	brcc	.+8      	; 0x27c8 <u8g_IsBBXIntersection+0x32>
    27c0:	28 17       	cp	r18, r24
    27c2:	20 f4       	brcc	.+8      	; 0x27cc <u8g_IsBBXIntersection+0x36>
    27c4:	80 e0       	ldi	r24, 0x00	; 0
    27c6:	07 c0       	rjmp	.+14     	; 0x27d6 <u8g_IsBBXIntersection+0x40>
    27c8:	28 17       	cp	r18, r24
    27ca:	20 f4       	brcc	.+8      	; 0x27d4 <u8g_IsBBXIntersection+0x3e>
    27cc:	81 e0       	ldi	r24, 0x01	; 1
    27ce:	26 17       	cp	r18, r22
    27d0:	10 f0       	brcs	.+4      	; 0x27d6 <u8g_IsBBXIntersection+0x40>
    27d2:	f8 cf       	rjmp	.-16     	; 0x27c4 <u8g_IsBBXIntersection+0x2e>
    27d4:	81 e0       	ldi	r24, 0x01	; 1
    27d6:	0f 91       	pop	r16
    27d8:	08 95       	ret

000027da <u8g_InitCom>:
    27da:	db 01       	movw	r26, r22
    27dc:	14 96       	adiw	r26, 0x04	; 4
    27de:	ed 91       	ld	r30, X+
    27e0:	fc 91       	ld	r31, X
    27e2:	15 97       	sbiw	r26, 0x05	; 5
    27e4:	20 e0       	ldi	r18, 0x00	; 0
    27e6:	30 e0       	ldi	r19, 0x00	; 0
    27e8:	61 e0       	ldi	r22, 0x01	; 1
    27ea:	09 94       	ijmp

000027ec <u8g_SetChipSelect>:
    27ec:	db 01       	movw	r26, r22
    27ee:	14 96       	adiw	r26, 0x04	; 4
    27f0:	ed 91       	ld	r30, X+
    27f2:	fc 91       	ld	r31, X
    27f4:	15 97       	sbiw	r26, 0x05	; 5
    27f6:	20 e0       	ldi	r18, 0x00	; 0
    27f8:	30 e0       	ldi	r19, 0x00	; 0
    27fa:	63 e0       	ldi	r22, 0x03	; 3
    27fc:	09 94       	ijmp

000027fe <u8g_SetResetLow>:
    27fe:	db 01       	movw	r26, r22
    2800:	14 96       	adiw	r26, 0x04	; 4
    2802:	ed 91       	ld	r30, X+
    2804:	fc 91       	ld	r31, X
    2806:	15 97       	sbiw	r26, 0x05	; 5
    2808:	20 e0       	ldi	r18, 0x00	; 0
    280a:	30 e0       	ldi	r19, 0x00	; 0
    280c:	40 e0       	ldi	r20, 0x00	; 0
    280e:	64 e0       	ldi	r22, 0x04	; 4
    2810:	09 94       	ijmp

00002812 <u8g_SetResetHigh>:
    2812:	db 01       	movw	r26, r22
    2814:	14 96       	adiw	r26, 0x04	; 4
    2816:	ed 91       	ld	r30, X+
    2818:	fc 91       	ld	r31, X
    281a:	15 97       	sbiw	r26, 0x05	; 5
    281c:	20 e0       	ldi	r18, 0x00	; 0
    281e:	30 e0       	ldi	r19, 0x00	; 0
    2820:	41 e0       	ldi	r20, 0x01	; 1
    2822:	64 e0       	ldi	r22, 0x04	; 4
    2824:	09 94       	ijmp

00002826 <u8g_SetAddress>:
    2826:	db 01       	movw	r26, r22
    2828:	14 96       	adiw	r26, 0x04	; 4
    282a:	ed 91       	ld	r30, X+
    282c:	fc 91       	ld	r31, X
    282e:	15 97       	sbiw	r26, 0x05	; 5
    2830:	20 e0       	ldi	r18, 0x00	; 0
    2832:	30 e0       	ldi	r19, 0x00	; 0
    2834:	62 e0       	ldi	r22, 0x02	; 2
    2836:	09 94       	ijmp

00002838 <u8g_WriteByte>:
    2838:	db 01       	movw	r26, r22
    283a:	14 96       	adiw	r26, 0x04	; 4
    283c:	ed 91       	ld	r30, X+
    283e:	fc 91       	ld	r31, X
    2840:	15 97       	sbiw	r26, 0x05	; 5
    2842:	20 e0       	ldi	r18, 0x00	; 0
    2844:	30 e0       	ldi	r19, 0x00	; 0
    2846:	65 e0       	ldi	r22, 0x05	; 5
    2848:	09 94       	ijmp

0000284a <u8g_WriteSequence>:
    284a:	db 01       	movw	r26, r22
    284c:	14 96       	adiw	r26, 0x04	; 4
    284e:	ed 91       	ld	r30, X+
    2850:	fc 91       	ld	r31, X
    2852:	15 97       	sbiw	r26, 0x05	; 5
    2854:	66 e0       	ldi	r22, 0x06	; 6
    2856:	09 94       	ijmp

00002858 <u8g_WriteEscSeqP>:
    2858:	cf 92       	push	r12
    285a:	df 92       	push	r13
    285c:	ef 92       	push	r14
    285e:	ff 92       	push	r15
    2860:	0f 93       	push	r16
    2862:	1f 93       	push	r17
    2864:	cf 93       	push	r28
    2866:	df 93       	push	r29
    2868:	8c 01       	movw	r16, r24
    286a:	7b 01       	movw	r14, r22
    286c:	6a 01       	movw	r12, r20
    286e:	80 e0       	ldi	r24, 0x00	; 0
    2870:	f6 01       	movw	r30, r12
    2872:	c4 91       	lpm	r28, Z
    2874:	81 11       	cpse	r24, r1
    2876:	0a c0       	rjmp	.+20     	; 0x288c <u8g_WriteEscSeqP+0x34>
    2878:	cf 3f       	cpi	r28, 0xFF	; 255
    287a:	e9 f1       	breq	.+122    	; 0x28f6 <u8g_WriteEscSeqP+0x9e>
    287c:	4c 2f       	mov	r20, r28
    287e:	b7 01       	movw	r22, r14
    2880:	c8 01       	movw	r24, r16
    2882:	0e 94 1c 14 	call	0x2838	; 0x2838 <u8g_WriteByte>
    2886:	81 11       	cpse	r24, r1
    2888:	2f c0       	rjmp	.+94     	; 0x28e8 <u8g_WriteEscSeqP+0x90>
    288a:	3a c0       	rjmp	.+116    	; 0x2900 <u8g_WriteEscSeqP+0xa8>
    288c:	cf 3f       	cpi	r28, 0xFF	; 255
    288e:	11 f4       	brne	.+4      	; 0x2894 <u8g_WriteEscSeqP+0x3c>
    2890:	4f ef       	ldi	r20, 0xFF	; 255
    2892:	f5 cf       	rjmp	.-22     	; 0x287e <u8g_WriteEscSeqP+0x26>
    2894:	ce 3f       	cpi	r28, 0xFE	; 254
    2896:	b1 f1       	breq	.+108    	; 0x2904 <u8g_WriteEscSeqP+0xac>
    2898:	c0 3f       	cpi	r28, 0xF0	; 240
    289a:	30 f5       	brcc	.+76     	; 0x28e8 <u8g_WriteEscSeqP+0x90>
    289c:	c0 3e       	cpi	r28, 0xE0	; 224
    289e:	38 f0       	brcs	.+14     	; 0x28ae <u8g_WriteEscSeqP+0x56>
    28a0:	4c 2f       	mov	r20, r28
    28a2:	4f 70       	andi	r20, 0x0F	; 15
    28a4:	b7 01       	movw	r22, r14
    28a6:	c8 01       	movw	r24, r16
    28a8:	0e 94 13 14 	call	0x2826	; 0x2826 <u8g_SetAddress>
    28ac:	1d c0       	rjmp	.+58     	; 0x28e8 <u8g_WriteEscSeqP+0x90>
    28ae:	c0 3d       	cpi	r28, 0xD0	; 208
    28b0:	38 f0       	brcs	.+14     	; 0x28c0 <u8g_WriteEscSeqP+0x68>
    28b2:	4c 2f       	mov	r20, r28
    28b4:	4f 70       	andi	r20, 0x0F	; 15
    28b6:	b7 01       	movw	r22, r14
    28b8:	c8 01       	movw	r24, r16
    28ba:	0e 94 f6 13 	call	0x27ec	; 0x27ec <u8g_SetChipSelect>
    28be:	14 c0       	rjmp	.+40     	; 0x28e8 <u8g_WriteEscSeqP+0x90>
    28c0:	c0 3c       	cpi	r28, 0xC0	; 192
    28c2:	a0 f0       	brcs	.+40     	; 0x28ec <u8g_WriteEscSeqP+0x94>
    28c4:	b7 01       	movw	r22, r14
    28c6:	c8 01       	movw	r24, r16
    28c8:	0e 94 ff 13 	call	0x27fe	; 0x27fe <u8g_SetResetLow>
    28cc:	c2 95       	swap	r28
    28ce:	c0 7f       	andi	r28, 0xF0	; 240
    28d0:	ce 5f       	subi	r28, 0xFE	; 254
    28d2:	d0 e0       	ldi	r29, 0x00	; 0
    28d4:	ce 01       	movw	r24, r28
    28d6:	0e 94 a3 15 	call	0x2b46	; 0x2b46 <u8g_Delay>
    28da:	b7 01       	movw	r22, r14
    28dc:	c8 01       	movw	r24, r16
    28de:	0e 94 09 14 	call	0x2812	; 0x2812 <u8g_SetResetHigh>
    28e2:	ce 01       	movw	r24, r28
    28e4:	0e 94 a3 15 	call	0x2b46	; 0x2b46 <u8g_Delay>
    28e8:	80 e0       	ldi	r24, 0x00	; 0
    28ea:	06 c0       	rjmp	.+12     	; 0x28f8 <u8g_WriteEscSeqP+0xa0>
    28ec:	c7 fd       	sbrc	r28, 7
    28ee:	fc cf       	rjmp	.-8      	; 0x28e8 <u8g_WriteEscSeqP+0x90>
    28f0:	8c 2f       	mov	r24, r28
    28f2:	90 e0       	ldi	r25, 0x00	; 0
    28f4:	f7 cf       	rjmp	.-18     	; 0x28e4 <u8g_WriteEscSeqP+0x8c>
    28f6:	81 e0       	ldi	r24, 0x01	; 1
    28f8:	ff ef       	ldi	r31, 0xFF	; 255
    28fa:	cf 1a       	sub	r12, r31
    28fc:	df 0a       	sbc	r13, r31
    28fe:	b8 cf       	rjmp	.-144    	; 0x2870 <u8g_WriteEscSeqP+0x18>
    2900:	80 e0       	ldi	r24, 0x00	; 0
    2902:	01 c0       	rjmp	.+2      	; 0x2906 <u8g_WriteEscSeqP+0xae>
    2904:	81 e0       	ldi	r24, 0x01	; 1
    2906:	df 91       	pop	r29
    2908:	cf 91       	pop	r28
    290a:	1f 91       	pop	r17
    290c:	0f 91       	pop	r16
    290e:	ff 90       	pop	r15
    2910:	ef 90       	pop	r14
    2912:	df 90       	pop	r13
    2914:	cf 90       	pop	r12
    2916:	08 95       	ret

00002918 <u8g_com_arduino_ssd_start_sequence>:
    2918:	cf 93       	push	r28
    291a:	df 93       	push	r29
    291c:	fc 01       	movw	r30, r24
    291e:	23 a5       	ldd	r18, Z+43	; 0x2b
    2920:	22 23       	and	r18, r18
    2922:	81 f0       	breq	.+32     	; 0x2944 <u8g_com_arduino_ssd_start_sequence+0x2c>
    2924:	ec 01       	movw	r28, r24
    2926:	88 e7       	ldi	r24, 0x78	; 120
    2928:	0e 94 44 15 	call	0x2a88	; 0x2a88 <u8g_i2c_start>
    292c:	81 11       	cpse	r24, r1
    292e:	02 c0       	rjmp	.+4      	; 0x2934 <u8g_com_arduino_ssd_start_sequence+0x1c>
    2930:	80 e0       	ldi	r24, 0x00	; 0
    2932:	09 c0       	rjmp	.+18     	; 0x2946 <u8g_com_arduino_ssd_start_sequence+0x2e>
    2934:	8e a1       	ldd	r24, Y+38	; 0x26
    2936:	81 11       	cpse	r24, r1
    2938:	80 e4       	ldi	r24, 0x40	; 64
    293a:	0e 94 7b 15 	call	0x2af6	; 0x2af6 <u8g_i2c_send_byte>
    293e:	88 23       	and	r24, r24
    2940:	b9 f3       	breq	.-18     	; 0x2930 <u8g_com_arduino_ssd_start_sequence+0x18>
    2942:	1b a6       	std	Y+43, r1	; 0x2b
    2944:	81 e0       	ldi	r24, 0x01	; 1
    2946:	df 91       	pop	r29
    2948:	cf 91       	pop	r28
    294a:	08 95       	ret

0000294c <u8g_com_arduino_ssd_i2c_fn>:
    294c:	0f 93       	push	r16
    294e:	1f 93       	push	r17
    2950:	cf 93       	push	r28
    2952:	c4 2f       	mov	r28, r20
    2954:	89 01       	movw	r16, r18
    2956:	63 30       	cpi	r22, 0x03	; 3
    2958:	c1 f0       	breq	.+48     	; 0x298a <u8g_com_arduino_ssd_i2c_fn+0x3e>
    295a:	50 f4       	brcc	.+20     	; 0x2970 <u8g_com_arduino_ssd_i2c_fn+0x24>
    295c:	61 30       	cpi	r22, 0x01	; 1
    295e:	81 f0       	breq	.+32     	; 0x2980 <u8g_com_arduino_ssd_i2c_fn+0x34>
    2960:	62 30       	cpi	r22, 0x02	; 2
    2962:	09 f0       	breq	.+2      	; 0x2966 <u8g_com_arduino_ssd_i2c_fn+0x1a>
    2964:	48 c0       	rjmp	.+144    	; 0x29f6 <u8g_com_arduino_ssd_i2c_fn+0xaa>
    2966:	fc 01       	movw	r30, r24
    2968:	46 a3       	std	Z+38, r20	; 0x26
    296a:	21 e0       	ldi	r18, 0x01	; 1
    296c:	23 a7       	std	Z+43, r18	; 0x2b
    296e:	43 c0       	rjmp	.+134    	; 0x29f6 <u8g_com_arduino_ssd_i2c_fn+0xaa>
    2970:	66 30       	cpi	r22, 0x06	; 6
    2972:	11 f1       	breq	.+68     	; 0x29b8 <u8g_com_arduino_ssd_i2c_fn+0x6c>
    2974:	67 30       	cpi	r22, 0x07	; 7
    2976:	79 f1       	breq	.+94     	; 0x29d6 <u8g_com_arduino_ssd_i2c_fn+0x8a>
    2978:	65 30       	cpi	r22, 0x05	; 5
    297a:	09 f0       	breq	.+2      	; 0x297e <u8g_com_arduino_ssd_i2c_fn+0x32>
    297c:	3c c0       	rjmp	.+120    	; 0x29f6 <u8g_com_arduino_ssd_i2c_fn+0xaa>
    297e:	0e c0       	rjmp	.+28     	; 0x299c <u8g_com_arduino_ssd_i2c_fn+0x50>
    2980:	fc 01       	movw	r30, r24
    2982:	86 a5       	ldd	r24, Z+46	; 0x2e
    2984:	0e 94 0e 15 	call	0x2a1c	; 0x2a1c <u8g_i2c_init>
    2988:	36 c0       	rjmp	.+108    	; 0x29f6 <u8g_com_arduino_ssd_i2c_fn+0xaa>
    298a:	fc 01       	movw	r30, r24
    298c:	16 a2       	std	Z+38, r1	; 0x26
    298e:	21 e0       	ldi	r18, 0x01	; 1
    2990:	23 a7       	std	Z+43, r18	; 0x2b
    2992:	41 11       	cpse	r20, r1
    2994:	30 c0       	rjmp	.+96     	; 0x29f6 <u8g_com_arduino_ssd_i2c_fn+0xaa>
    2996:	0e 94 9c 15 	call	0x2b38	; 0x2b38 <u8g_i2c_stop>
    299a:	2d c0       	rjmp	.+90     	; 0x29f6 <u8g_com_arduino_ssd_i2c_fn+0xaa>
    299c:	0e 94 8c 14 	call	0x2918	; 0x2918 <u8g_com_arduino_ssd_start_sequence>
    29a0:	81 11       	cpse	r24, r1
    29a2:	04 c0       	rjmp	.+8      	; 0x29ac <u8g_com_arduino_ssd_i2c_fn+0x60>
    29a4:	0e 94 9c 15 	call	0x2b38	; 0x2b38 <u8g_i2c_stop>
    29a8:	80 e0       	ldi	r24, 0x00	; 0
    29aa:	26 c0       	rjmp	.+76     	; 0x29f8 <u8g_com_arduino_ssd_i2c_fn+0xac>
    29ac:	8c 2f       	mov	r24, r28
    29ae:	0e 94 7b 15 	call	0x2af6	; 0x2af6 <u8g_i2c_send_byte>
    29b2:	81 11       	cpse	r24, r1
    29b4:	20 c0       	rjmp	.+64     	; 0x29f6 <u8g_com_arduino_ssd_i2c_fn+0xaa>
    29b6:	f6 cf       	rjmp	.-20     	; 0x29a4 <u8g_com_arduino_ssd_i2c_fn+0x58>
    29b8:	0e 94 8c 14 	call	0x2918	; 0x2918 <u8g_com_arduino_ssd_start_sequence>
    29bc:	88 23       	and	r24, r24
    29be:	91 f3       	breq	.-28     	; 0x29a4 <u8g_com_arduino_ssd_i2c_fn+0x58>
    29c0:	cc 23       	and	r28, r28
    29c2:	c9 f0       	breq	.+50     	; 0x29f6 <u8g_com_arduino_ssd_i2c_fn+0xaa>
    29c4:	f8 01       	movw	r30, r16
    29c6:	81 91       	ld	r24, Z+
    29c8:	8f 01       	movw	r16, r30
    29ca:	0e 94 7b 15 	call	0x2af6	; 0x2af6 <u8g_i2c_send_byte>
    29ce:	88 23       	and	r24, r24
    29d0:	49 f3       	breq	.-46     	; 0x29a4 <u8g_com_arduino_ssd_i2c_fn+0x58>
    29d2:	c1 50       	subi	r28, 0x01	; 1
    29d4:	f5 cf       	rjmp	.-22     	; 0x29c0 <u8g_com_arduino_ssd_i2c_fn+0x74>
    29d6:	0e 94 8c 14 	call	0x2918	; 0x2918 <u8g_com_arduino_ssd_start_sequence>
    29da:	88 23       	and	r24, r24
    29dc:	19 f3       	breq	.-58     	; 0x29a4 <u8g_com_arduino_ssd_i2c_fn+0x58>
    29de:	cc 23       	and	r28, r28
    29e0:	51 f0       	breq	.+20     	; 0x29f6 <u8g_com_arduino_ssd_i2c_fn+0xaa>
    29e2:	f8 01       	movw	r30, r16
    29e4:	84 91       	lpm	r24, Z
    29e6:	0e 94 7b 15 	call	0x2af6	; 0x2af6 <u8g_i2c_send_byte>
    29ea:	88 23       	and	r24, r24
    29ec:	29 f0       	breq	.+10     	; 0x29f8 <u8g_com_arduino_ssd_i2c_fn+0xac>
    29ee:	0f 5f       	subi	r16, 0xFF	; 255
    29f0:	1f 4f       	sbci	r17, 0xFF	; 255
    29f2:	c1 50       	subi	r28, 0x01	; 1
    29f4:	f4 cf       	rjmp	.-24     	; 0x29de <u8g_com_arduino_ssd_i2c_fn+0x92>
    29f6:	81 e0       	ldi	r24, 0x01	; 1
    29f8:	cf 91       	pop	r28
    29fa:	1f 91       	pop	r17
    29fc:	0f 91       	pop	r16
    29fe:	08 95       	ret

00002a00 <u8g_i2c_set_error>:
    2a00:	90 91 2a 02 	lds	r25, 0x022A	; 0x80022a <u8g_i2c_err_code>
    2a04:	91 11       	cpse	r25, r1
    2a06:	04 c0       	rjmp	.+8      	; 0x2a10 <u8g_i2c_set_error+0x10>
    2a08:	80 93 2a 02 	sts	0x022A, r24	; 0x80022a <u8g_i2c_err_code>
    2a0c:	60 93 28 02 	sts	0x0228, r22	; 0x800228 <__data_end>
    2a10:	08 95       	ret

00002a12 <u8g_i2c_clear_error>:
    2a12:	10 92 2a 02 	sts	0x022A, r1	; 0x80022a <u8g_i2c_err_code>
    2a16:	10 92 28 02 	sts	0x0228, r1	; 0x800228 <__data_end>
    2a1a:	08 95       	ret

00002a1c <u8g_i2c_init>:
    2a1c:	80 93 29 02 	sts	0x0229, r24	; 0x800229 <u8g_i2c_opt>
    2a20:	10 92 b9 00 	sts	0x00B9, r1	; 0x8000b9 <__TEXT_REGION_LENGTH__+0x7e00b9>
    2a24:	84 ff       	sbrs	r24, 4
    2a26:	02 c0       	rjmp	.+4      	; 0x2a2c <u8g_i2c_init+0x10>
    2a28:	8c e0       	ldi	r24, 0x0C	; 12
    2a2a:	01 c0       	rjmp	.+2      	; 0x2a2e <u8g_i2c_init+0x12>
    2a2c:	88 e4       	ldi	r24, 0x48	; 72
    2a2e:	80 93 b8 00 	sts	0x00B8, r24	; 0x8000b8 <__TEXT_REGION_LENGTH__+0x7e00b8>
    2a32:	0c 94 09 15 	jmp	0x2a12	; 0x2a12 <u8g_i2c_clear_error>

00002a36 <u8g_i2c_wait>:
    2a36:	1f 93       	push	r17
    2a38:	cf 93       	push	r28
    2a3a:	df 93       	push	r29
    2a3c:	00 d0       	rcall	.+0      	; 0x2a3e <u8g_i2c_wait+0x8>
    2a3e:	cd b7       	in	r28, 0x3d	; 61
    2a40:	de b7       	in	r29, 0x3e	; 62
    2a42:	20 ed       	ldi	r18, 0xD0	; 208
    2a44:	37 e0       	ldi	r19, 0x07	; 7
    2a46:	3a 83       	std	Y+2, r19	; 0x02
    2a48:	29 83       	std	Y+1, r18	; 0x01
    2a4a:	90 91 bc 00 	lds	r25, 0x00BC	; 0x8000bc <__TEXT_REGION_LENGTH__+0x7e00bc>
    2a4e:	98 23       	and	r25, r24
    2a50:	99 f4       	brne	.+38     	; 0x2a78 <u8g_i2c_wait+0x42>
    2a52:	29 81       	ldd	r18, Y+1	; 0x01
    2a54:	3a 81       	ldd	r19, Y+2	; 0x02
    2a56:	23 2b       	or	r18, r19
    2a58:	51 f4       	brne	.+20     	; 0x2a6e <u8g_i2c_wait+0x38>
    2a5a:	80 91 29 02 	lds	r24, 0x0229	; 0x800229 <u8g_i2c_opt>
    2a5e:	18 2f       	mov	r17, r24
    2a60:	12 70       	andi	r17, 0x02	; 2
    2a62:	81 fd       	sbrc	r24, 1
    2a64:	09 c0       	rjmp	.+18     	; 0x2a78 <u8g_i2c_wait+0x42>
    2a66:	81 e0       	ldi	r24, 0x01	; 1
    2a68:	0e 94 00 15 	call	0x2a00	; 0x2a00 <u8g_i2c_set_error>
    2a6c:	06 c0       	rjmp	.+12     	; 0x2a7a <u8g_i2c_wait+0x44>
    2a6e:	29 81       	ldd	r18, Y+1	; 0x01
    2a70:	3a 81       	ldd	r19, Y+2	; 0x02
    2a72:	21 50       	subi	r18, 0x01	; 1
    2a74:	31 09       	sbc	r19, r1
    2a76:	e7 cf       	rjmp	.-50     	; 0x2a46 <u8g_i2c_wait+0x10>
    2a78:	11 e0       	ldi	r17, 0x01	; 1
    2a7a:	81 2f       	mov	r24, r17
    2a7c:	0f 90       	pop	r0
    2a7e:	0f 90       	pop	r0
    2a80:	df 91       	pop	r29
    2a82:	cf 91       	pop	r28
    2a84:	1f 91       	pop	r17
    2a86:	08 95       	ret

00002a88 <u8g_i2c_start>:
    2a88:	cf 93       	push	r28
    2a8a:	c8 2f       	mov	r28, r24
    2a8c:	84 ea       	ldi	r24, 0xA4	; 164
    2a8e:	80 93 bc 00 	sts	0x00BC, r24	; 0x8000bc <__TEXT_REGION_LENGTH__+0x7e00bc>
    2a92:	61 e0       	ldi	r22, 0x01	; 1
    2a94:	80 e8       	ldi	r24, 0x80	; 128
    2a96:	0e 94 1b 15 	call	0x2a36	; 0x2a36 <u8g_i2c_wait>
    2a9a:	88 23       	and	r24, r24
    2a9c:	59 f0       	breq	.+22     	; 0x2ab4 <u8g_i2c_start+0x2c>
    2a9e:	90 91 b9 00 	lds	r25, 0x00B9	; 0x8000b9 <__TEXT_REGION_LENGTH__+0x7e00b9>
    2aa2:	98 7f       	andi	r25, 0xF8	; 248
    2aa4:	98 30       	cpi	r25, 0x08	; 8
    2aa6:	41 f0       	breq	.+16     	; 0x2ab8 <u8g_i2c_start+0x30>
    2aa8:	90 31       	cpi	r25, 0x10	; 16
    2aaa:	31 f0       	breq	.+12     	; 0x2ab8 <u8g_i2c_start+0x30>
    2aac:	61 e0       	ldi	r22, 0x01	; 1
    2aae:	82 e0       	ldi	r24, 0x02	; 2
    2ab0:	0e 94 00 15 	call	0x2a00	; 0x2a00 <u8g_i2c_set_error>
    2ab4:	c0 e0       	ldi	r28, 0x00	; 0
    2ab6:	1c c0       	rjmp	.+56     	; 0x2af0 <u8g_i2c_start+0x68>
    2ab8:	c0 93 bb 00 	sts	0x00BB, r28	; 0x8000bb <__TEXT_REGION_LENGTH__+0x7e00bb>
    2abc:	84 e8       	ldi	r24, 0x84	; 132
    2abe:	80 93 bc 00 	sts	0x00BC, r24	; 0x8000bc <__TEXT_REGION_LENGTH__+0x7e00bc>
    2ac2:	62 e0       	ldi	r22, 0x02	; 2
    2ac4:	80 e8       	ldi	r24, 0x80	; 128
    2ac6:	0e 94 1b 15 	call	0x2a36	; 0x2a36 <u8g_i2c_wait>
    2aca:	88 23       	and	r24, r24
    2acc:	99 f3       	breq	.-26     	; 0x2ab4 <u8g_i2c_start+0x2c>
    2ace:	80 91 29 02 	lds	r24, 0x0229	; 0x800229 <u8g_i2c_opt>
    2ad2:	c8 2f       	mov	r28, r24
    2ad4:	c2 70       	andi	r28, 0x02	; 2
    2ad6:	81 fd       	sbrc	r24, 1
    2ad8:	0a c0       	rjmp	.+20     	; 0x2aee <u8g_i2c_start+0x66>
    2ada:	80 91 b9 00 	lds	r24, 0x00B9	; 0x8000b9 <__TEXT_REGION_LENGTH__+0x7e00b9>
    2ade:	88 7f       	andi	r24, 0xF8	; 248
    2ae0:	88 31       	cpi	r24, 0x18	; 24
    2ae2:	29 f0       	breq	.+10     	; 0x2aee <u8g_i2c_start+0x66>
    2ae4:	62 e0       	ldi	r22, 0x02	; 2
    2ae6:	82 e0       	ldi	r24, 0x02	; 2
    2ae8:	0e 94 00 15 	call	0x2a00	; 0x2a00 <u8g_i2c_set_error>
    2aec:	01 c0       	rjmp	.+2      	; 0x2af0 <u8g_i2c_start+0x68>
    2aee:	c1 e0       	ldi	r28, 0x01	; 1
    2af0:	8c 2f       	mov	r24, r28
    2af2:	cf 91       	pop	r28
    2af4:	08 95       	ret

00002af6 <u8g_i2c_send_byte>:
    2af6:	cf 93       	push	r28
    2af8:	80 93 bb 00 	sts	0x00BB, r24	; 0x8000bb <__TEXT_REGION_LENGTH__+0x7e00bb>
    2afc:	84 e8       	ldi	r24, 0x84	; 132
    2afe:	80 93 bc 00 	sts	0x00BC, r24	; 0x8000bc <__TEXT_REGION_LENGTH__+0x7e00bc>
    2b02:	63 e0       	ldi	r22, 0x03	; 3
    2b04:	80 e8       	ldi	r24, 0x80	; 128
    2b06:	0e 94 1b 15 	call	0x2a36	; 0x2a36 <u8g_i2c_wait>
    2b0a:	c8 2f       	mov	r28, r24
    2b0c:	88 23       	and	r24, r24
    2b0e:	89 f0       	breq	.+34     	; 0x2b32 <u8g_i2c_send_byte+0x3c>
    2b10:	80 91 29 02 	lds	r24, 0x0229	; 0x800229 <u8g_i2c_opt>
    2b14:	c8 2f       	mov	r28, r24
    2b16:	c2 70       	andi	r28, 0x02	; 2
    2b18:	81 fd       	sbrc	r24, 1
    2b1a:	0a c0       	rjmp	.+20     	; 0x2b30 <u8g_i2c_send_byte+0x3a>
    2b1c:	80 91 b9 00 	lds	r24, 0x00B9	; 0x8000b9 <__TEXT_REGION_LENGTH__+0x7e00b9>
    2b20:	88 7f       	andi	r24, 0xF8	; 248
    2b22:	88 32       	cpi	r24, 0x28	; 40
    2b24:	29 f0       	breq	.+10     	; 0x2b30 <u8g_i2c_send_byte+0x3a>
    2b26:	63 e0       	ldi	r22, 0x03	; 3
    2b28:	82 e0       	ldi	r24, 0x02	; 2
    2b2a:	0e 94 00 15 	call	0x2a00	; 0x2a00 <u8g_i2c_set_error>
    2b2e:	01 c0       	rjmp	.+2      	; 0x2b32 <u8g_i2c_send_byte+0x3c>
    2b30:	c1 e0       	ldi	r28, 0x01	; 1
    2b32:	8c 2f       	mov	r24, r28
    2b34:	cf 91       	pop	r28
    2b36:	08 95       	ret

00002b38 <u8g_i2c_stop>:
    2b38:	84 e9       	ldi	r24, 0x94	; 148
    2b3a:	80 93 bc 00 	sts	0x00BC, r24	; 0x8000bc <__TEXT_REGION_LENGTH__+0x7e00bc>
    2b3e:	64 e0       	ldi	r22, 0x04	; 4
    2b40:	80 e1       	ldi	r24, 0x10	; 16
    2b42:	0c 94 1b 15 	jmp	0x2a36	; 0x2a36 <u8g_i2c_wait>

00002b46 <u8g_Delay>:
    2b46:	28 ef       	ldi	r18, 0xF8	; 248
    2b48:	30 e0       	ldi	r19, 0x00	; 0
    2b4a:	00 97       	sbiw	r24, 0x00	; 0
    2b4c:	29 f0       	breq	.+10     	; 0x2b58 <u8g_Delay+0x12>
    2b4e:	f9 01       	movw	r30, r18
    2b50:	31 97       	sbiw	r30, 0x01	; 1
    2b52:	f1 f7       	brne	.-4      	; 0x2b50 <u8g_Delay+0xa>
    2b54:	01 97       	sbiw	r24, 0x01	; 1
    2b56:	f9 cf       	rjmp	.-14     	; 0x2b4a <u8g_Delay+0x4>
    2b58:	08 95       	ret

00002b5a <u8g_dev_ssd1306_128x64_fn>:
    2b5a:	af 92       	push	r10
    2b5c:	bf 92       	push	r11
    2b5e:	cf 92       	push	r12
    2b60:	df 92       	push	r13
    2b62:	ff 92       	push	r15
    2b64:	0f 93       	push	r16
    2b66:	1f 93       	push	r17
    2b68:	cf 93       	push	r28
    2b6a:	df 93       	push	r29
    2b6c:	8c 01       	movw	r16, r24
    2b6e:	eb 01       	movw	r28, r22
    2b70:	f4 2e       	mov	r15, r20
    2b72:	69 01       	movw	r12, r18
    2b74:	80 e1       	ldi	r24, 0x10	; 16
    2b76:	48 17       	cp	r20, r24
    2b78:	09 f4       	brne	.+2      	; 0x2b7c <u8g_dev_ssd1306_128x64_fn+0x22>
    2b7a:	54 c0       	rjmp	.+168    	; 0x2c24 <u8g_dev_ssd1306_128x64_fn+0xca>
    2b7c:	84 17       	cp	r24, r20
    2b7e:	00 f1       	brcs	.+64     	; 0x2bc0 <u8g_dev_ssd1306_128x64_fn+0x66>
    2b80:	ea e0       	ldi	r30, 0x0A	; 10
    2b82:	4e 17       	cp	r20, r30
    2b84:	21 f1       	breq	.+72     	; 0x2bce <u8g_dev_ssd1306_128x64_fn+0x74>
    2b86:	ff e0       	ldi	r31, 0x0F	; 15
    2b88:	4f 13       	cpse	r20, r31
    2b8a:	57 c0       	rjmp	.+174    	; 0x2c3a <u8g_dev_ssd1306_128x64_fn+0xe0>
    2b8c:	41 e0       	ldi	r20, 0x01	; 1
    2b8e:	c8 01       	movw	r24, r16
    2b90:	0e 94 f6 13 	call	0x27ec	; 0x27ec <u8g_SetChipSelect>
    2b94:	40 e0       	ldi	r20, 0x00	; 0
    2b96:	be 01       	movw	r22, r28
    2b98:	c8 01       	movw	r24, r16
    2b9a:	0e 94 13 14 	call	0x2826	; 0x2826 <u8g_SetAddress>
    2b9e:	41 e8       	ldi	r20, 0x81	; 129
    2ba0:	be 01       	movw	r22, r28
    2ba2:	c8 01       	movw	r24, r16
    2ba4:	0e 94 1c 14 	call	0x2838	; 0x2838 <u8g_WriteByte>
    2ba8:	f6 01       	movw	r30, r12
    2baa:	40 81       	ld	r20, Z
    2bac:	be 01       	movw	r22, r28
    2bae:	c8 01       	movw	r24, r16
    2bb0:	0e 94 1c 14 	call	0x2838	; 0x2838 <u8g_WriteByte>
    2bb4:	40 e0       	ldi	r20, 0x00	; 0
    2bb6:	be 01       	movw	r22, r28
    2bb8:	c8 01       	movw	r24, r16
    2bba:	0e 94 f6 13 	call	0x27ec	; 0x27ec <u8g_SetChipSelect>
    2bbe:	3b c0       	rjmp	.+118    	; 0x2c36 <u8g_dev_ssd1306_128x64_fn+0xdc>
    2bc0:	81 e1       	ldi	r24, 0x11	; 17
    2bc2:	48 17       	cp	r20, r24
    2bc4:	91 f1       	breq	.+100    	; 0x2c2a <u8g_dev_ssd1306_128x64_fn+0xd0>
    2bc6:	e5 e1       	ldi	r30, 0x15	; 21
    2bc8:	4e 17       	cp	r20, r30
    2bca:	61 f0       	breq	.+24     	; 0x2be4 <u8g_dev_ssd1306_128x64_fn+0x8a>
    2bcc:	36 c0       	rjmp	.+108    	; 0x2c3a <u8g_dev_ssd1306_128x64_fn+0xe0>
    2bce:	42 e0       	ldi	r20, 0x02	; 2
    2bd0:	c8 01       	movw	r24, r16
    2bd2:	0e 94 ed 13 	call	0x27da	; 0x27da <u8g_InitCom>
    2bd6:	44 e9       	ldi	r20, 0x94	; 148
    2bd8:	51 e0       	ldi	r21, 0x01	; 1
    2bda:	be 01       	movw	r22, r28
    2bdc:	c8 01       	movw	r24, r16
    2bde:	0e 94 2c 14 	call	0x2858	; 0x2858 <u8g_WriteEscSeqP>
    2be2:	2b c0       	rjmp	.+86     	; 0x2c3a <u8g_dev_ssd1306_128x64_fn+0xe0>
    2be4:	aa 80       	ldd	r10, Y+2	; 0x02
    2be6:	bb 80       	ldd	r11, Y+3	; 0x03
    2be8:	4c e8       	ldi	r20, 0x8C	; 140
    2bea:	51 e0       	ldi	r21, 0x01	; 1
    2bec:	c8 01       	movw	r24, r16
    2bee:	0e 94 2c 14 	call	0x2858	; 0x2858 <u8g_WriteEscSeqP>
    2bf2:	f5 01       	movw	r30, r10
    2bf4:	44 81       	ldd	r20, Z+4	; 0x04
    2bf6:	40 6b       	ori	r20, 0xB0	; 176
    2bf8:	be 01       	movw	r22, r28
    2bfa:	c8 01       	movw	r24, r16
    2bfc:	0e 94 1c 14 	call	0x2838	; 0x2838 <u8g_WriteByte>
    2c00:	41 e0       	ldi	r20, 0x01	; 1
    2c02:	be 01       	movw	r22, r28
    2c04:	c8 01       	movw	r24, r16
    2c06:	0e 94 13 14 	call	0x2826	; 0x2826 <u8g_SetAddress>
    2c0a:	ae 01       	movw	r20, r28
    2c0c:	b8 01       	movw	r22, r16
    2c0e:	c5 01       	movw	r24, r10
    2c10:	0e 94 20 1a 	call	0x3440	; 0x3440 <u8g_pb_WriteBuffer>
    2c14:	88 23       	and	r24, r24
    2c16:	01 f1       	breq	.+64     	; 0x2c58 <u8g_dev_ssd1306_128x64_fn+0xfe>
    2c18:	40 e0       	ldi	r20, 0x00	; 0
    2c1a:	be 01       	movw	r22, r28
    2c1c:	c8 01       	movw	r24, r16
    2c1e:	0e 94 f6 13 	call	0x27ec	; 0x27ec <u8g_SetChipSelect>
    2c22:	0b c0       	rjmp	.+22     	; 0x2c3a <u8g_dev_ssd1306_128x64_fn+0xe0>
    2c24:	43 e8       	ldi	r20, 0x83	; 131
    2c26:	51 e0       	ldi	r21, 0x01	; 1
    2c28:	02 c0       	rjmp	.+4      	; 0x2c2e <u8g_dev_ssd1306_128x64_fn+0xd4>
    2c2a:	48 e7       	ldi	r20, 0x78	; 120
    2c2c:	51 e0       	ldi	r21, 0x01	; 1
    2c2e:	be 01       	movw	r22, r28
    2c30:	c8 01       	movw	r24, r16
    2c32:	0e 94 2c 14 	call	0x2858	; 0x2858 <u8g_WriteEscSeqP>
    2c36:	81 e0       	ldi	r24, 0x01	; 1
    2c38:	0f c0       	rjmp	.+30     	; 0x2c58 <u8g_dev_ssd1306_128x64_fn+0xfe>
    2c3a:	96 01       	movw	r18, r12
    2c3c:	4f 2d       	mov	r20, r15
    2c3e:	be 01       	movw	r22, r28
    2c40:	c8 01       	movw	r24, r16
    2c42:	df 91       	pop	r29
    2c44:	cf 91       	pop	r28
    2c46:	1f 91       	pop	r17
    2c48:	0f 91       	pop	r16
    2c4a:	ff 90       	pop	r15
    2c4c:	df 90       	pop	r13
    2c4e:	cf 90       	pop	r12
    2c50:	bf 90       	pop	r11
    2c52:	af 90       	pop	r10
    2c54:	0c 94 8c 1a 	jmp	0x3518	; 0x3518 <u8g_dev_pb8v1_base_fn>
    2c58:	df 91       	pop	r29
    2c5a:	cf 91       	pop	r28
    2c5c:	1f 91       	pop	r17
    2c5e:	0f 91       	pop	r16
    2c60:	ff 90       	pop	r15
    2c62:	df 90       	pop	r13
    2c64:	cf 90       	pop	r12
    2c66:	bf 90       	pop	r11
    2c68:	af 90       	pop	r10
    2c6a:	08 95       	ret

00002c6c <u8g_font_get_word>:
    2c6c:	fc 01       	movw	r30, r24
    2c6e:	e6 0f       	add	r30, r22
    2c70:	f1 1d       	adc	r31, r1
    2c72:	84 91       	lpm	r24, Z
    2c74:	90 e0       	ldi	r25, 0x00	; 0
    2c76:	98 2f       	mov	r25, r24
    2c78:	88 27       	eor	r24, r24
    2c7a:	31 96       	adiw	r30, 0x01	; 1
    2c7c:	e4 91       	lpm	r30, Z
    2c7e:	8e 0f       	add	r24, r30
    2c80:	91 1d       	adc	r25, r1
    2c82:	08 95       	ret

00002c84 <u8g_font_GetFormat>:
    2c84:	fc 01       	movw	r30, r24
    2c86:	84 91       	lpm	r24, Z
    2c88:	08 95       	ret

00002c8a <u8g_font_GetFontGlyphStructureSize>:
    2c8a:	0e 94 42 16 	call	0x2c84	; 0x2c84 <u8g_font_GetFormat>
    2c8e:	88 23       	and	r24, r24
    2c90:	21 f0       	breq	.+8      	; 0x2c9a <u8g_font_GetFontGlyphStructureSize+0x10>
    2c92:	82 30       	cpi	r24, 0x02	; 2
    2c94:	11 f0       	breq	.+4      	; 0x2c9a <u8g_font_GetFontGlyphStructureSize+0x10>
    2c96:	83 e0       	ldi	r24, 0x03	; 3
    2c98:	08 95       	ret
    2c9a:	86 e0       	ldi	r24, 0x06	; 6
    2c9c:	08 95       	ret

00002c9e <u8g_font_calc_vref_font>:
    2c9e:	80 e0       	ldi	r24, 0x00	; 0
    2ca0:	08 95       	ret

00002ca2 <u8g_font_GetEncoding65Pos>:
    2ca2:	66 e0       	ldi	r22, 0x06	; 6
    2ca4:	0c 94 36 16 	jmp	0x2c6c	; 0x2c6c <u8g_font_get_word>

00002ca8 <u8g_font_GetEncoding97Pos>:
    2ca8:	68 e0       	ldi	r22, 0x08	; 8
    2caa:	0c 94 36 16 	jmp	0x2c6c	; 0x2c6c <u8g_font_get_word>

00002cae <u8g_font_GetFontStartEncoding>:
    2cae:	0a 96       	adiw	r24, 0x0a	; 10
    2cb0:	fc 01       	movw	r30, r24
    2cb2:	84 91       	lpm	r24, Z
    2cb4:	08 95       	ret

00002cb6 <u8g_font_GetFontEndEncoding>:
    2cb6:	0b 96       	adiw	r24, 0x0b	; 11
    2cb8:	fc 01       	movw	r30, r24
    2cba:	84 91       	lpm	r24, Z
    2cbc:	08 95       	ret

00002cbe <u8g_GetGlyph>:
    2cbe:	bf 92       	push	r11
    2cc0:	cf 92       	push	r12
    2cc2:	df 92       	push	r13
    2cc4:	ef 92       	push	r14
    2cc6:	ff 92       	push	r15
    2cc8:	0f 93       	push	r16
    2cca:	1f 93       	push	r17
    2ccc:	cf 93       	push	r28
    2cce:	df 93       	push	r29
    2cd0:	8c 01       	movw	r16, r24
    2cd2:	e6 2e       	mov	r14, r22
    2cd4:	dc 01       	movw	r26, r24
    2cd6:	14 96       	adiw	r26, 0x04	; 4
    2cd8:	cd 91       	ld	r28, X+
    2cda:	dc 91       	ld	r29, X
    2cdc:	15 97       	sbiw	r26, 0x05	; 5
    2cde:	ce 01       	movw	r24, r28
    2ce0:	0e 94 42 16 	call	0x2c84	; 0x2c84 <u8g_font_GetFormat>
    2ce4:	f8 2e       	mov	r15, r24
    2ce6:	f8 01       	movw	r30, r16
    2ce8:	84 81       	ldd	r24, Z+4	; 0x04
    2cea:	95 81       	ldd	r25, Z+5	; 0x05
    2cec:	0e 94 45 16 	call	0x2c8a	; 0x2c8a <u8g_font_GetFontGlyphStructureSize>
    2cf0:	c8 2e       	mov	r12, r24
    2cf2:	f1 e0       	ldi	r31, 0x01	; 1
    2cf4:	ff 12       	cpse	r15, r31
    2cf6:	03 c0       	rjmp	.+6      	; 0x2cfe <u8g_GetGlyph+0x40>
    2cf8:	2f e0       	ldi	r18, 0x0F	; 15
    2cfa:	b2 2e       	mov	r11, r18
    2cfc:	02 c0       	rjmp	.+4      	; 0x2d02 <u8g_GetGlyph+0x44>
    2cfe:	bb 24       	eor	r11, r11
    2d00:	ba 94       	dec	r11
    2d02:	d8 01       	movw	r26, r16
    2d04:	14 96       	adiw	r26, 0x04	; 4
    2d06:	8d 91       	ld	r24, X+
    2d08:	9c 91       	ld	r25, X
    2d0a:	15 97       	sbiw	r26, 0x05	; 5
    2d0c:	0e 94 57 16 	call	0x2cae	; 0x2cae <u8g_font_GetFontStartEncoding>
    2d10:	f8 2e       	mov	r15, r24
    2d12:	f8 01       	movw	r30, r16
    2d14:	84 81       	ldd	r24, Z+4	; 0x04
    2d16:	95 81       	ldd	r25, Z+5	; 0x05
    2d18:	0e 94 5b 16 	call	0x2cb6	; 0x2cb6 <u8g_font_GetFontEndEncoding>
    2d1c:	d8 2e       	mov	r13, r24
    2d1e:	d8 01       	movw	r26, r16
    2d20:	14 96       	adiw	r26, 0x04	; 4
    2d22:	8d 91       	ld	r24, X+
    2d24:	9c 91       	ld	r25, X
    2d26:	15 97       	sbiw	r26, 0x05	; 5
    2d28:	0e 94 54 16 	call	0x2ca8	; 0x2ca8 <u8g_font_GetEncoding97Pos>
    2d2c:	b0 e6       	ldi	r27, 0x60	; 96
    2d2e:	be 15       	cp	r27, r14
    2d30:	38 f4       	brcc	.+14     	; 0x2d40 <u8g_GetGlyph+0x82>
    2d32:	00 97       	sbiw	r24, 0x00	; 0
    2d34:	29 f0       	breq	.+10     	; 0x2d40 <u8g_GetGlyph+0x82>
    2d36:	c8 0f       	add	r28, r24
    2d38:	d9 1f       	adc	r29, r25
    2d3a:	91 e6       	ldi	r25, 0x61	; 97
    2d3c:	f9 2e       	mov	r15, r25
    2d3e:	10 c0       	rjmp	.+32     	; 0x2d60 <u8g_GetGlyph+0xa2>
    2d40:	f8 01       	movw	r30, r16
    2d42:	84 81       	ldd	r24, Z+4	; 0x04
    2d44:	95 81       	ldd	r25, Z+5	; 0x05
    2d46:	0e 94 51 16 	call	0x2ca2	; 0x2ca2 <u8g_font_GetEncoding65Pos>
    2d4a:	f0 e4       	ldi	r31, 0x40	; 64
    2d4c:	fe 15       	cp	r31, r14
    2d4e:	38 f4       	brcc	.+14     	; 0x2d5e <u8g_GetGlyph+0xa0>
    2d50:	00 97       	sbiw	r24, 0x00	; 0
    2d52:	29 f0       	breq	.+10     	; 0x2d5e <u8g_GetGlyph+0xa0>
    2d54:	c8 0f       	add	r28, r24
    2d56:	d9 1f       	adc	r29, r25
    2d58:	81 e4       	ldi	r24, 0x41	; 65
    2d5a:	f8 2e       	mov	r15, r24
    2d5c:	01 c0       	rjmp	.+2      	; 0x2d60 <u8g_GetGlyph+0xa2>
    2d5e:	61 96       	adiw	r28, 0x11	; 17
    2d60:	de 14       	cp	r13, r14
    2d62:	90 f4       	brcc	.+36     	; 0x2d88 <u8g_GetGlyph+0xca>
    2d64:	d8 01       	movw	r26, r16
    2d66:	50 96       	adiw	r26, 0x10	; 16
    2d68:	1c 92       	st	X, r1
    2d6a:	50 97       	sbiw	r26, 0x10	; 16
    2d6c:	53 96       	adiw	r26, 0x13	; 19
    2d6e:	1c 92       	st	X, r1
    2d70:	53 97       	sbiw	r26, 0x13	; 19
    2d72:	54 96       	adiw	r26, 0x14	; 20
    2d74:	1c 92       	st	X, r1
    2d76:	54 97       	sbiw	r26, 0x14	; 20
    2d78:	51 96       	adiw	r26, 0x11	; 17
    2d7a:	1c 92       	st	X, r1
    2d7c:	51 97       	sbiw	r26, 0x11	; 17
    2d7e:	52 96       	adiw	r26, 0x12	; 18
    2d80:	1c 92       	st	X, r1
    2d82:	80 e0       	ldi	r24, 0x00	; 0
    2d84:	90 e0       	ldi	r25, 0x00	; 0
    2d86:	67 c0       	rjmp	.+206    	; 0x2e56 <u8g_GetGlyph+0x198>
    2d88:	df 14       	cp	r13, r15
    2d8a:	60 f3       	brcs	.-40     	; 0x2d64 <u8g_GetGlyph+0xa6>
    2d8c:	8c 2d       	mov	r24, r12
    2d8e:	90 e0       	ldi	r25, 0x00	; 0
    2d90:	fe 01       	movw	r30, r28
    2d92:	24 91       	lpm	r18, Z
    2d94:	2f 3f       	cpi	r18, 0xFF	; 255
    2d96:	11 f4       	brne	.+4      	; 0x2d9c <u8g_GetGlyph+0xde>
    2d98:	21 96       	adiw	r28, 0x01	; 1
    2d9a:	58 c0       	rjmp	.+176    	; 0x2e4c <u8g_GetGlyph+0x18e>
    2d9c:	fe 10       	cpse	r15, r14
    2d9e:	4d c0       	rjmp	.+154    	; 0x2e3a <u8g_GetGlyph+0x17c>
    2da0:	d8 01       	movw	r26, r16
    2da2:	14 96       	adiw	r26, 0x04	; 4
    2da4:	8d 91       	ld	r24, X+
    2da6:	9c 91       	ld	r25, X
    2da8:	15 97       	sbiw	r26, 0x05	; 5
    2daa:	0e 94 42 16 	call	0x2c84	; 0x2c84 <u8g_font_GetFormat>
    2dae:	9e 01       	movw	r18, r28
    2db0:	2f 5f       	subi	r18, 0xFF	; 255
    2db2:	3f 4f       	sbci	r19, 0xFF	; 255
    2db4:	fe 01       	movw	r30, r28
    2db6:	88 23       	and	r24, r24
    2db8:	11 f0       	breq	.+4      	; 0x2dbe <u8g_GetGlyph+0x100>
    2dba:	82 30       	cpi	r24, 0x02	; 2
    2dbc:	e1 f4       	brne	.+56     	; 0x2df6 <u8g_GetGlyph+0x138>
    2dbe:	84 91       	lpm	r24, Z
    2dc0:	d8 01       	movw	r26, r16
    2dc2:	53 96       	adiw	r26, 0x13	; 19
    2dc4:	8c 93       	st	X, r24
    2dc6:	53 97       	sbiw	r26, 0x13	; 19
    2dc8:	f9 01       	movw	r30, r18
    2dca:	24 91       	lpm	r18, Z
    2dcc:	54 96       	adiw	r26, 0x14	; 20
    2dce:	2c 93       	st	X, r18
    2dd0:	54 97       	sbiw	r26, 0x14	; 20
    2dd2:	fe 01       	movw	r30, r28
    2dd4:	33 96       	adiw	r30, 0x03	; 3
    2dd6:	e4 91       	lpm	r30, Z
    2dd8:	50 96       	adiw	r26, 0x10	; 16
    2dda:	ec 93       	st	X, r30
    2ddc:	50 97       	sbiw	r26, 0x10	; 16
    2dde:	fe 01       	movw	r30, r28
    2de0:	34 96       	adiw	r30, 0x04	; 4
    2de2:	e4 91       	lpm	r30, Z
    2de4:	51 96       	adiw	r26, 0x11	; 17
    2de6:	ec 93       	st	X, r30
    2de8:	51 97       	sbiw	r26, 0x11	; 17
    2dea:	fe 01       	movw	r30, r28
    2dec:	35 96       	adiw	r30, 0x05	; 5
    2dee:	e4 91       	lpm	r30, Z
    2df0:	52 96       	adiw	r26, 0x12	; 18
    2df2:	ec 93       	st	X, r30
    2df4:	20 c0       	rjmp	.+64     	; 0x2e36 <u8g_GetGlyph+0x178>
    2df6:	84 91       	lpm	r24, Z
    2df8:	98 2f       	mov	r25, r24
    2dfa:	9f 70       	andi	r25, 0x0F	; 15
    2dfc:	92 50       	subi	r25, 0x02	; 2
    2dfe:	d8 01       	movw	r26, r16
    2e00:	52 96       	adiw	r26, 0x12	; 18
    2e02:	9c 93       	st	X, r25
    2e04:	52 97       	sbiw	r26, 0x12	; 18
    2e06:	82 95       	swap	r24
    2e08:	8f 70       	andi	r24, 0x0F	; 15
    2e0a:	51 96       	adiw	r26, 0x11	; 17
    2e0c:	8c 93       	st	X, r24
    2e0e:	51 97       	sbiw	r26, 0x11	; 17
    2e10:	f9 01       	movw	r30, r18
    2e12:	24 91       	lpm	r18, Z
    2e14:	82 2f       	mov	r24, r18
    2e16:	8f 70       	andi	r24, 0x0F	; 15
    2e18:	54 96       	adiw	r26, 0x14	; 20
    2e1a:	8c 93       	st	X, r24
    2e1c:	54 97       	sbiw	r26, 0x14	; 20
    2e1e:	22 95       	swap	r18
    2e20:	2f 70       	andi	r18, 0x0F	; 15
    2e22:	53 96       	adiw	r26, 0x13	; 19
    2e24:	2c 93       	st	X, r18
    2e26:	53 97       	sbiw	r26, 0x13	; 19
    2e28:	fe 01       	movw	r30, r28
    2e2a:	32 96       	adiw	r30, 0x02	; 2
    2e2c:	e4 91       	lpm	r30, Z
    2e2e:	e2 95       	swap	r30
    2e30:	ef 70       	andi	r30, 0x0F	; 15
    2e32:	50 96       	adiw	r26, 0x10	; 16
    2e34:	ec 93       	st	X, r30
    2e36:	ce 01       	movw	r24, r28
    2e38:	0e c0       	rjmp	.+28     	; 0x2e56 <u8g_GetGlyph+0x198>
    2e3a:	fe 01       	movw	r30, r28
    2e3c:	32 96       	adiw	r30, 0x02	; 2
    2e3e:	e4 91       	lpm	r30, Z
    2e40:	eb 21       	and	r30, r11
    2e42:	9c 01       	movw	r18, r24
    2e44:	2e 0f       	add	r18, r30
    2e46:	31 1d       	adc	r19, r1
    2e48:	c2 0f       	add	r28, r18
    2e4a:	d3 1f       	adc	r29, r19
    2e4c:	fd 14       	cp	r15, r13
    2e4e:	09 f4       	brne	.+2      	; 0x2e52 <u8g_GetGlyph+0x194>
    2e50:	89 cf       	rjmp	.-238    	; 0x2d64 <u8g_GetGlyph+0xa6>
    2e52:	f3 94       	inc	r15
    2e54:	9d cf       	rjmp	.-198    	; 0x2d90 <u8g_GetGlyph+0xd2>
    2e56:	df 91       	pop	r29
    2e58:	cf 91       	pop	r28
    2e5a:	1f 91       	pop	r17
    2e5c:	0f 91       	pop	r16
    2e5e:	ff 90       	pop	r15
    2e60:	ef 90       	pop	r14
    2e62:	df 90       	pop	r13
    2e64:	cf 90       	pop	r12
    2e66:	bf 90       	pop	r11
    2e68:	08 95       	ret

00002e6a <u8g_draw_glyph>:
    2e6a:	4f 92       	push	r4
    2e6c:	5f 92       	push	r5
    2e6e:	6f 92       	push	r6
    2e70:	7f 92       	push	r7
    2e72:	9f 92       	push	r9
    2e74:	af 92       	push	r10
    2e76:	bf 92       	push	r11
    2e78:	cf 92       	push	r12
    2e7a:	df 92       	push	r13
    2e7c:	ef 92       	push	r14
    2e7e:	ff 92       	push	r15
    2e80:	0f 93       	push	r16
    2e82:	1f 93       	push	r17
    2e84:	cf 93       	push	r28
    2e86:	df 93       	push	r29
    2e88:	1f 92       	push	r1
    2e8a:	cd b7       	in	r28, 0x3d	; 61
    2e8c:	de b7       	in	r29, 0x3e	; 62
    2e8e:	2c 01       	movw	r4, r24
    2e90:	c6 2e       	mov	r12, r22
    2e92:	94 2e       	mov	r9, r20
    2e94:	62 2f       	mov	r22, r18
    2e96:	0e 94 5f 16 	call	0x2cbe	; 0x2cbe <u8g_GetGlyph>
    2e9a:	7c 01       	movw	r14, r24
    2e9c:	89 2b       	or	r24, r25
    2e9e:	09 f4       	brne	.+2      	; 0x2ea2 <u8g_draw_glyph+0x38>
    2ea0:	3d c0       	rjmp	.+122    	; 0x2f1c <u8g_draw_glyph+0xb2>
    2ea2:	f2 01       	movw	r30, r4
    2ea4:	84 81       	ldd	r24, Z+4	; 0x04
    2ea6:	95 81       	ldd	r25, Z+5	; 0x05
    2ea8:	0e 94 45 16 	call	0x2c8a	; 0x2c8a <u8g_font_GetFontGlyphStructureSize>
    2eac:	b8 2e       	mov	r11, r24
    2eae:	f2 01       	movw	r30, r4
    2eb0:	13 89       	ldd	r17, Z+19	; 0x13
    2eb2:	04 89       	ldd	r16, Z+20	; 0x14
    2eb4:	81 89       	ldd	r24, Z+17	; 0x11
    2eb6:	c8 0e       	add	r12, r24
    2eb8:	82 89       	ldd	r24, Z+18	; 0x12
    2eba:	98 1a       	sub	r9, r24
    2ebc:	d9 2c       	mov	r13, r9
    2ebe:	d0 1a       	sub	r13, r16
    2ec0:	21 2f       	mov	r18, r17
    2ec2:	4d 2d       	mov	r20, r13
    2ec4:	6c 2d       	mov	r22, r12
    2ec6:	c2 01       	movw	r24, r4
    2ec8:	0e 94 cb 13 	call	0x2796	; 0x2796 <u8g_IsBBXIntersection>
    2ecc:	88 23       	and	r24, r24
    2ece:	19 f1       	breq	.+70     	; 0x2f16 <u8g_draw_glyph+0xac>
    2ed0:	eb 0c       	add	r14, r11
    2ed2:	f1 1c       	adc	r15, r1
    2ed4:	19 5f       	subi	r17, 0xF9	; 249
    2ed6:	16 95       	lsr	r17
    2ed8:	16 95       	lsr	r17
    2eda:	16 95       	lsr	r17
    2edc:	61 2e       	mov	r6, r17
    2ede:	71 2c       	mov	r7, r1
    2ee0:	d9 14       	cp	r13, r9
    2ee2:	c9 f0       	breq	.+50     	; 0x2f16 <u8g_draw_glyph+0xac>
    2ee4:	3c 2d       	mov	r19, r12
    2ee6:	57 01       	movw	r10, r14
    2ee8:	8a 2d       	mov	r24, r10
    2eea:	8e 19       	sub	r24, r14
    2eec:	81 17       	cp	r24, r17
    2eee:	78 f4       	brcc	.+30     	; 0x2f0e <u8g_draw_glyph+0xa4>
    2ef0:	f5 01       	movw	r30, r10
    2ef2:	04 91       	lpm	r16, Z
    2ef4:	20 e0       	ldi	r18, 0x00	; 0
    2ef6:	4d 2d       	mov	r20, r13
    2ef8:	63 2f       	mov	r22, r19
    2efa:	c2 01       	movw	r24, r4
    2efc:	39 83       	std	Y+1, r19	; 0x01
    2efe:	0e 94 ac 19 	call	0x3358	; 0x3358 <u8g_Draw8Pixel>
    2f02:	ff ef       	ldi	r31, 0xFF	; 255
    2f04:	af 1a       	sub	r10, r31
    2f06:	bf 0a       	sbc	r11, r31
    2f08:	39 81       	ldd	r19, Y+1	; 0x01
    2f0a:	38 5f       	subi	r19, 0xF8	; 248
    2f0c:	ed cf       	rjmp	.-38     	; 0x2ee8 <u8g_draw_glyph+0x7e>
    2f0e:	e6 0c       	add	r14, r6
    2f10:	f7 1c       	adc	r15, r7
    2f12:	d3 94       	inc	r13
    2f14:	e5 cf       	rjmp	.-54     	; 0x2ee0 <u8g_draw_glyph+0x76>
    2f16:	f2 01       	movw	r30, r4
    2f18:	80 89       	ldd	r24, Z+16	; 0x10
    2f1a:	01 c0       	rjmp	.+2      	; 0x2f1e <u8g_draw_glyph+0xb4>
    2f1c:	80 e0       	ldi	r24, 0x00	; 0
    2f1e:	0f 90       	pop	r0
    2f20:	df 91       	pop	r29
    2f22:	cf 91       	pop	r28
    2f24:	1f 91       	pop	r17
    2f26:	0f 91       	pop	r16
    2f28:	ff 90       	pop	r15
    2f2a:	ef 90       	pop	r14
    2f2c:	df 90       	pop	r13
    2f2e:	cf 90       	pop	r12
    2f30:	bf 90       	pop	r11
    2f32:	af 90       	pop	r10
    2f34:	9f 90       	pop	r9
    2f36:	7f 90       	pop	r7
    2f38:	6f 90       	pop	r6
    2f3a:	5f 90       	pop	r5
    2f3c:	4f 90       	pop	r4
    2f3e:	08 95       	ret

00002f40 <u8g_DrawStr>:
    2f40:	af 92       	push	r10
    2f42:	bf 92       	push	r11
    2f44:	df 92       	push	r13
    2f46:	ef 92       	push	r14
    2f48:	ff 92       	push	r15
    2f4a:	0f 93       	push	r16
    2f4c:	1f 93       	push	r17
    2f4e:	cf 93       	push	r28
    2f50:	df 93       	push	r29
    2f52:	00 d0       	rcall	.+0      	; 0x2f54 <u8g_DrawStr+0x14>
    2f54:	cd b7       	in	r28, 0x3d	; 61
    2f56:	de b7       	in	r29, 0x3e	; 62
    2f58:	7c 01       	movw	r14, r24
    2f5a:	d6 2e       	mov	r13, r22
    2f5c:	04 2f       	mov	r16, r20
    2f5e:	dc 01       	movw	r26, r24
    2f60:	55 96       	adiw	r26, 0x15	; 21
    2f62:	ed 91       	ld	r30, X+
    2f64:	fc 91       	ld	r31, X
    2f66:	56 97       	sbiw	r26, 0x16	; 22
    2f68:	29 83       	std	Y+1, r18	; 0x01
    2f6a:	3a 83       	std	Y+2, r19	; 0x02
    2f6c:	09 95       	icall
    2f6e:	08 0f       	add	r16, r24
    2f70:	29 81       	ldd	r18, Y+1	; 0x01
    2f72:	a2 2e       	mov	r10, r18
    2f74:	3a 81       	ldd	r19, Y+2	; 0x02
    2f76:	b3 2e       	mov	r11, r19
    2f78:	10 e0       	ldi	r17, 0x00	; 0
    2f7a:	f5 01       	movw	r30, r10
    2f7c:	21 91       	ld	r18, Z+
    2f7e:	5f 01       	movw	r10, r30
    2f80:	22 23       	and	r18, r18
    2f82:	41 f0       	breq	.+16     	; 0x2f94 <u8g_DrawStr+0x54>
    2f84:	40 2f       	mov	r20, r16
    2f86:	6d 2d       	mov	r22, r13
    2f88:	c7 01       	movw	r24, r14
    2f8a:	0e 94 35 17 	call	0x2e6a	; 0x2e6a <u8g_draw_glyph>
    2f8e:	d8 0e       	add	r13, r24
    2f90:	18 0f       	add	r17, r24
    2f92:	f3 cf       	rjmp	.-26     	; 0x2f7a <u8g_DrawStr+0x3a>
    2f94:	81 2f       	mov	r24, r17
    2f96:	0f 90       	pop	r0
    2f98:	0f 90       	pop	r0
    2f9a:	df 91       	pop	r29
    2f9c:	cf 91       	pop	r28
    2f9e:	1f 91       	pop	r17
    2fa0:	0f 91       	pop	r16
    2fa2:	ff 90       	pop	r15
    2fa4:	ef 90       	pop	r14
    2fa6:	df 90       	pop	r13
    2fa8:	bf 90       	pop	r11
    2faa:	af 90       	pop	r10
    2fac:	08 95       	ret

00002fae <u8g_DrawStrP>:
    2fae:	df 92       	push	r13
    2fb0:	ef 92       	push	r14
    2fb2:	ff 92       	push	r15
    2fb4:	0f 93       	push	r16
    2fb6:	1f 93       	push	r17
    2fb8:	cf 93       	push	r28
    2fba:	df 93       	push	r29
    2fbc:	7c 01       	movw	r14, r24
    2fbe:	d6 2f       	mov	r29, r22
    2fc0:	d4 2e       	mov	r13, r20
    2fc2:	89 01       	movw	r16, r18
    2fc4:	dc 01       	movw	r26, r24
    2fc6:	55 96       	adiw	r26, 0x15	; 21
    2fc8:	ed 91       	ld	r30, X+
    2fca:	fc 91       	ld	r31, X
    2fcc:	56 97       	sbiw	r26, 0x16	; 22
    2fce:	09 95       	icall
    2fd0:	d8 0e       	add	r13, r24
    2fd2:	c0 e0       	ldi	r28, 0x00	; 0
    2fd4:	f8 01       	movw	r30, r16
    2fd6:	24 91       	lpm	r18, Z
    2fd8:	22 23       	and	r18, r18
    2fda:	51 f0       	breq	.+20     	; 0x2ff0 <u8g_DrawStrP+0x42>
    2fdc:	4d 2d       	mov	r20, r13
    2fde:	6d 2f       	mov	r22, r29
    2fe0:	c7 01       	movw	r24, r14
    2fe2:	0e 94 35 17 	call	0x2e6a	; 0x2e6a <u8g_draw_glyph>
    2fe6:	d8 0f       	add	r29, r24
    2fe8:	c8 0f       	add	r28, r24
    2fea:	0f 5f       	subi	r16, 0xFF	; 255
    2fec:	1f 4f       	sbci	r17, 0xFF	; 255
    2fee:	f2 cf       	rjmp	.-28     	; 0x2fd4 <u8g_DrawStrP+0x26>
    2ff0:	8c 2f       	mov	r24, r28
    2ff2:	df 91       	pop	r29
    2ff4:	cf 91       	pop	r28
    2ff6:	1f 91       	pop	r17
    2ff8:	0f 91       	pop	r16
    2ffa:	ff 90       	pop	r15
    2ffc:	ef 90       	pop	r14
    2ffe:	df 90       	pop	r13
    3000:	08 95       	ret

00003002 <u8g_UpdateRefHeight>:
    3002:	dc 01       	movw	r26, r24
    3004:	14 96       	adiw	r26, 0x04	; 4
    3006:	2d 91       	ld	r18, X+
    3008:	3c 91       	ld	r19, X
    300a:	15 97       	sbiw	r26, 0x05	; 5
    300c:	21 15       	cp	r18, r1
    300e:	31 05       	cpc	r19, r1
    3010:	09 f4       	brne	.+2      	; 0x3014 <u8g_UpdateRefHeight+0x12>
    3012:	3f c0       	rjmp	.+126    	; 0x3092 <u8g_UpdateRefHeight+0x90>
    3014:	57 96       	adiw	r26, 0x17	; 23
    3016:	8c 91       	ld	r24, X
    3018:	57 97       	sbiw	r26, 0x17	; 23
    301a:	f9 01       	movw	r30, r18
    301c:	81 11       	cpse	r24, r1
    301e:	08 c0       	rjmp	.+16     	; 0x3030 <u8g_UpdateRefHeight+0x2e>
    3020:	35 96       	adiw	r30, 0x05	; 5
    3022:	e4 91       	lpm	r30, Z
    3024:	58 96       	adiw	r26, 0x18	; 24
    3026:	ec 93       	st	X, r30
    3028:	58 97       	sbiw	r26, 0x18	; 24
    302a:	f9 01       	movw	r30, r18
    302c:	3c 96       	adiw	r30, 0x0c	; 12
    302e:	11 c0       	rjmp	.+34     	; 0x3052 <u8g_UpdateRefHeight+0x50>
    3030:	81 30       	cpi	r24, 0x01	; 1
    3032:	41 f4       	brne	.+16     	; 0x3044 <u8g_UpdateRefHeight+0x42>
    3034:	3f 96       	adiw	r30, 0x0f	; 15
    3036:	e4 91       	lpm	r30, Z
    3038:	58 96       	adiw	r26, 0x18	; 24
    303a:	ec 93       	st	X, r30
    303c:	58 97       	sbiw	r26, 0x18	; 24
    303e:	f9 01       	movw	r30, r18
    3040:	70 96       	adiw	r30, 0x10	; 16
    3042:	07 c0       	rjmp	.+14     	; 0x3052 <u8g_UpdateRefHeight+0x50>
    3044:	3d 96       	adiw	r30, 0x0d	; 13
    3046:	e4 91       	lpm	r30, Z
    3048:	58 96       	adiw	r26, 0x18	; 24
    304a:	ec 93       	st	X, r30
    304c:	58 97       	sbiw	r26, 0x18	; 24
    304e:	f9 01       	movw	r30, r18
    3050:	3e 96       	adiw	r30, 0x0e	; 14
    3052:	e4 91       	lpm	r30, Z
    3054:	59 96       	adiw	r26, 0x19	; 25
    3056:	ec 93       	st	X, r30
    3058:	59 97       	sbiw	r26, 0x19	; 25
    305a:	58 96       	adiw	r26, 0x18	; 24
    305c:	8c 91       	ld	r24, X
    305e:	58 97       	sbiw	r26, 0x18	; 24
    3060:	08 2e       	mov	r0, r24
    3062:	00 0c       	add	r0, r0
    3064:	99 0b       	sbc	r25, r25
    3066:	59 96       	adiw	r26, 0x19	; 25
    3068:	2c 91       	ld	r18, X
    306a:	59 97       	sbiw	r26, 0x19	; 25
    306c:	82 1b       	sub	r24, r18
    306e:	91 09       	sbc	r25, r1
    3070:	27 fd       	sbrc	r18, 7
    3072:	93 95       	inc	r25
    3074:	5a 96       	adiw	r26, 0x1a	; 26
    3076:	2c 91       	ld	r18, X
    3078:	5a 97       	sbiw	r26, 0x1a	; 26
    307a:	20 34       	cpi	r18, 0x40	; 64
    307c:	41 f0       	breq	.+16     	; 0x308e <u8g_UpdateRefHeight+0x8c>
    307e:	82 9f       	mul	r24, r18
    3080:	c0 01       	movw	r24, r0
    3082:	11 24       	eor	r1, r1
    3084:	26 e0       	ldi	r18, 0x06	; 6
    3086:	96 95       	lsr	r25
    3088:	87 95       	ror	r24
    308a:	2a 95       	dec	r18
    308c:	e1 f7       	brne	.-8      	; 0x3086 <u8g_UpdateRefHeight+0x84>
    308e:	5b 96       	adiw	r26, 0x1b	; 27
    3090:	8c 93       	st	X, r24
    3092:	08 95       	ret

00003094 <u8g_SetFontPosBaseline>:
    3094:	2f e4       	ldi	r18, 0x4F	; 79
    3096:	36 e1       	ldi	r19, 0x16	; 22
    3098:	fc 01       	movw	r30, r24
    309a:	36 8b       	std	Z+22, r19	; 0x16
    309c:	25 8b       	std	Z+21, r18	; 0x15
    309e:	08 95       	ret

000030a0 <u8g_SetFont>:
    30a0:	cf 93       	push	r28
    30a2:	df 93       	push	r29
    30a4:	fc 01       	movw	r30, r24
    30a6:	24 81       	ldd	r18, Z+4	; 0x04
    30a8:	35 81       	ldd	r19, Z+5	; 0x05
    30aa:	26 17       	cp	r18, r22
    30ac:	37 07       	cpc	r19, r23
    30ae:	49 f0       	breq	.+18     	; 0x30c2 <u8g_SetFont+0x22>
    30b0:	ec 01       	movw	r28, r24
    30b2:	75 83       	std	Z+5, r23	; 0x05
    30b4:	64 83       	std	Z+4, r22	; 0x04
    30b6:	0e 94 01 18 	call	0x3002	; 0x3002 <u8g_UpdateRefHeight>
    30ba:	8f e4       	ldi	r24, 0x4F	; 79
    30bc:	96 e1       	ldi	r25, 0x16	; 22
    30be:	9e 8b       	std	Y+22, r25	; 0x16
    30c0:	8d 8b       	std	Y+21, r24	; 0x15
    30c2:	df 91       	pop	r29
    30c4:	cf 91       	pop	r28
    30c6:	08 95       	ret

000030c8 <u8g_init_data>:
    30c8:	1f 93       	push	r17
    30ca:	cf 93       	push	r28
    30cc:	df 93       	push	r29
    30ce:	ec 01       	movw	r28, r24
    30d0:	1d 82       	std	Y+5, r1	; 0x05
    30d2:	1c 82       	std	Y+4, r1	; 0x04
    30d4:	1f 82       	std	Y+7, r1	; 0x07
    30d6:	1e 82       	std	Y+6, r1	; 0x06
    30d8:	19 86       	std	Y+9, r1	; 0x09
    30da:	81 e0       	ldi	r24, 0x01	; 1
    30dc:	88 87       	std	Y+8, r24	; 0x08
    30de:	82 e2       	ldi	r24, 0x22	; 34
    30e0:	8a 87       	std	Y+10, r24	; 0x0a
    30e2:	1f 86       	std	Y+15, r1	; 0x0f
    30e4:	1e 86       	std	Y+14, r1	; 0x0e
    30e6:	fe 01       	movw	r30, r28
    30e8:	b3 96       	adiw	r30, 0x23	; 35
    30ea:	ce 01       	movw	r24, r28
    30ec:	c1 96       	adiw	r24, 0x31	; 49
    30ee:	2f ef       	ldi	r18, 0xFF	; 255
    30f0:	21 93       	st	Z+, r18
    30f2:	e8 17       	cp	r30, r24
    30f4:	f9 07       	cpc	r31, r25
    30f6:	e1 f7       	brne	.-8      	; 0x30f0 <u8g_init_data+0x28>
    30f8:	11 e0       	ldi	r17, 0x01	; 1
    30fa:	18 a3       	std	Y+32, r17	; 0x20
    30fc:	ce 01       	movw	r24, r28
    30fe:	0e 94 4a 18 	call	0x3094	; 0x3094 <u8g_SetFontPosBaseline>
    3102:	1f 8b       	std	Y+23, r17	; 0x17
    3104:	18 8e       	std	Y+24, r1	; 0x18
    3106:	19 8e       	std	Y+25, r1	; 0x19
    3108:	80 e4       	ldi	r24, 0x40	; 64
    310a:	8a 8f       	std	Y+26, r24	; 0x1a
    310c:	1b 8e       	std	Y+27, r1	; 0x1b
    310e:	80 e8       	ldi	r24, 0x80	; 128
    3110:	9b e1       	ldi	r25, 0x1B	; 27
    3112:	9a ab       	std	Y+50, r25	; 0x32
    3114:	89 ab       	std	Y+49, r24	; 0x31
    3116:	df 91       	pop	r29
    3118:	cf 91       	pop	r28
    311a:	1f 91       	pop	r17
    311c:	08 95       	ret

0000311e <u8g_call_dev_fn>:
    311e:	db 01       	movw	r26, r22
    3120:	ed 91       	ld	r30, X+
    3122:	fc 91       	ld	r31, X
    3124:	09 94       	ijmp

00003126 <u8g_InitLL>:
    3126:	ef 92       	push	r14
    3128:	ff 92       	push	r15
    312a:	1f 93       	push	r17
    312c:	cf 93       	push	r28
    312e:	df 93       	push	r29
    3130:	00 d0       	rcall	.+0      	; 0x3132 <u8g_InitLL+0xc>
    3132:	cd b7       	in	r28, 0x3d	; 61
    3134:	de b7       	in	r29, 0x3e	; 62
    3136:	7c 01       	movw	r14, r24
    3138:	dc 01       	movw	r26, r24
    313a:	d1 96       	adiw	r26, 0x31	; 49
    313c:	ed 91       	ld	r30, X+
    313e:	fc 91       	ld	r31, X
    3140:	d2 97       	sbiw	r26, 0x32	; 50
    3142:	82 e0       	ldi	r24, 0x02	; 2
    3144:	69 83       	std	Y+1, r22	; 0x01
    3146:	7a 83       	std	Y+2, r23	; 0x02
    3148:	09 95       	icall
    314a:	20 e0       	ldi	r18, 0x00	; 0
    314c:	30 e0       	ldi	r19, 0x00	; 0
    314e:	4a e0       	ldi	r20, 0x0A	; 10
    3150:	69 81       	ldd	r22, Y+1	; 0x01
    3152:	7a 81       	ldd	r23, Y+2	; 0x02
    3154:	c7 01       	movw	r24, r14
    3156:	0e 94 8f 18 	call	0x311e	; 0x311e <u8g_call_dev_fn>
    315a:	18 2f       	mov	r17, r24
    315c:	d7 01       	movw	r26, r14
    315e:	d1 96       	adiw	r26, 0x31	; 49
    3160:	ed 91       	ld	r30, X+
    3162:	fc 91       	ld	r31, X
    3164:	d2 97       	sbiw	r26, 0x32	; 50
    3166:	83 e0       	ldi	r24, 0x03	; 3
    3168:	09 95       	icall
    316a:	d7 01       	movw	r26, r14
    316c:	d1 96       	adiw	r26, 0x31	; 49
    316e:	ed 91       	ld	r30, X+
    3170:	fc 91       	ld	r31, X
    3172:	d2 97       	sbiw	r26, 0x32	; 50
    3174:	80 e0       	ldi	r24, 0x00	; 0
    3176:	09 95       	icall
    3178:	81 2f       	mov	r24, r17
    317a:	0f 90       	pop	r0
    317c:	0f 90       	pop	r0
    317e:	df 91       	pop	r29
    3180:	cf 91       	pop	r28
    3182:	1f 91       	pop	r17
    3184:	ff 90       	pop	r15
    3186:	ef 90       	pop	r14
    3188:	08 95       	ret

0000318a <u8g_FirstPageLL>:
    318a:	0f 93       	push	r16
    318c:	1f 93       	push	r17
    318e:	cf 93       	push	r28
    3190:	df 93       	push	r29
    3192:	ec 01       	movw	r28, r24
    3194:	8b 01       	movw	r16, r22
    3196:	e9 a9       	ldd	r30, Y+49	; 0x31
    3198:	fa a9       	ldd	r31, Y+50	; 0x32
    319a:	82 e0       	ldi	r24, 0x02	; 2
    319c:	09 95       	icall
    319e:	e9 a9       	ldd	r30, Y+49	; 0x31
    31a0:	fa a9       	ldd	r31, Y+50	; 0x32
    31a2:	81 e0       	ldi	r24, 0x01	; 1
    31a4:	09 95       	icall
    31a6:	20 e0       	ldi	r18, 0x00	; 0
    31a8:	30 e0       	ldi	r19, 0x00	; 0
    31aa:	44 e1       	ldi	r20, 0x14	; 20
    31ac:	b8 01       	movw	r22, r16
    31ae:	ce 01       	movw	r24, r28
    31b0:	0e 94 8f 18 	call	0x311e	; 0x311e <u8g_call_dev_fn>
    31b4:	9e 01       	movw	r18, r28
    31b6:	2d 5c       	subi	r18, 0xCD	; 205
    31b8:	3f 4f       	sbci	r19, 0xFF	; 255
    31ba:	47 e1       	ldi	r20, 0x17	; 23
    31bc:	b8 01       	movw	r22, r16
    31be:	ce 01       	movw	r24, r28
    31c0:	0e 94 8f 18 	call	0x311e	; 0x311e <u8g_call_dev_fn>
    31c4:	e9 a9       	ldd	r30, Y+49	; 0x31
    31c6:	fa a9       	ldd	r31, Y+50	; 0x32
    31c8:	80 e0       	ldi	r24, 0x00	; 0
    31ca:	df 91       	pop	r29
    31cc:	cf 91       	pop	r28
    31ce:	1f 91       	pop	r17
    31d0:	0f 91       	pop	r16
    31d2:	09 94       	ijmp

000031d4 <u8g_NextPageLL>:
    31d4:	ef 92       	push	r14
    31d6:	ff 92       	push	r15
    31d8:	1f 93       	push	r17
    31da:	cf 93       	push	r28
    31dc:	df 93       	push	r29
    31de:	ec 01       	movw	r28, r24
    31e0:	7b 01       	movw	r14, r22
    31e2:	e9 a9       	ldd	r30, Y+49	; 0x31
    31e4:	fa a9       	ldd	r31, Y+50	; 0x32
    31e6:	82 e0       	ldi	r24, 0x02	; 2
    31e8:	09 95       	icall
    31ea:	e9 a9       	ldd	r30, Y+49	; 0x31
    31ec:	fa a9       	ldd	r31, Y+50	; 0x32
    31ee:	81 e0       	ldi	r24, 0x01	; 1
    31f0:	09 95       	icall
    31f2:	20 e0       	ldi	r18, 0x00	; 0
    31f4:	30 e0       	ldi	r19, 0x00	; 0
    31f6:	45 e1       	ldi	r20, 0x15	; 21
    31f8:	b7 01       	movw	r22, r14
    31fa:	ce 01       	movw	r24, r28
    31fc:	0e 94 8f 18 	call	0x311e	; 0x311e <u8g_call_dev_fn>
    3200:	18 2f       	mov	r17, r24
    3202:	88 23       	and	r24, r24
    3204:	41 f0       	breq	.+16     	; 0x3216 <u8g_NextPageLL+0x42>
    3206:	9e 01       	movw	r18, r28
    3208:	2d 5c       	subi	r18, 0xCD	; 205
    320a:	3f 4f       	sbci	r19, 0xFF	; 255
    320c:	47 e1       	ldi	r20, 0x17	; 23
    320e:	b7 01       	movw	r22, r14
    3210:	ce 01       	movw	r24, r28
    3212:	0e 94 8f 18 	call	0x311e	; 0x311e <u8g_call_dev_fn>
    3216:	e9 a9       	ldd	r30, Y+49	; 0x31
    3218:	fa a9       	ldd	r31, Y+50	; 0x32
    321a:	80 e0       	ldi	r24, 0x00	; 0
    321c:	09 95       	icall
    321e:	81 2f       	mov	r24, r17
    3220:	df 91       	pop	r29
    3222:	cf 91       	pop	r28
    3224:	1f 91       	pop	r17
    3226:	ff 90       	pop	r15
    3228:	ef 90       	pop	r14
    322a:	08 95       	ret

0000322c <u8g_DrawPixelLL>:
    322c:	fc 01       	movw	r30, r24
    322e:	44 8f       	std	Z+28, r20	; 0x1c
    3230:	25 8f       	std	Z+29, r18	; 0x1d
    3232:	9c 01       	movw	r18, r24
    3234:	24 5e       	subi	r18, 0xE4	; 228
    3236:	3f 4f       	sbci	r19, 0xFF	; 255
    3238:	42 e3       	ldi	r20, 0x32	; 50
    323a:	0c 94 8f 18 	jmp	0x311e	; 0x311e <u8g_call_dev_fn>

0000323e <u8g_GetWidthLL>:
    323e:	cf 93       	push	r28
    3240:	df 93       	push	r29
    3242:	1f 92       	push	r1
    3244:	cd b7       	in	r28, 0x3d	; 61
    3246:	de b7       	in	r29, 0x3e	; 62
    3248:	9e 01       	movw	r18, r28
    324a:	2f 5f       	subi	r18, 0xFF	; 255
    324c:	3f 4f       	sbci	r19, 0xFF	; 255
    324e:	46 e4       	ldi	r20, 0x46	; 70
    3250:	0e 94 8f 18 	call	0x311e	; 0x311e <u8g_call_dev_fn>
    3254:	89 81       	ldd	r24, Y+1	; 0x01
    3256:	0f 90       	pop	r0
    3258:	df 91       	pop	r29
    325a:	cf 91       	pop	r28
    325c:	08 95       	ret

0000325e <u8g_GetHeightLL>:
    325e:	cf 93       	push	r28
    3260:	df 93       	push	r29
    3262:	1f 92       	push	r1
    3264:	cd b7       	in	r28, 0x3d	; 61
    3266:	de b7       	in	r29, 0x3e	; 62
    3268:	9e 01       	movw	r18, r28
    326a:	2f 5f       	subi	r18, 0xFF	; 255
    326c:	3f 4f       	sbci	r19, 0xFF	; 255
    326e:	47 e4       	ldi	r20, 0x47	; 71
    3270:	0e 94 8f 18 	call	0x311e	; 0x311e <u8g_call_dev_fn>
    3274:	89 81       	ldd	r24, Y+1	; 0x01
    3276:	0f 90       	pop	r0
    3278:	df 91       	pop	r29
    327a:	cf 91       	pop	r28
    327c:	08 95       	ret

0000327e <u8g_GetModeLL>:
    327e:	20 e0       	ldi	r18, 0x00	; 0
    3280:	30 e0       	ldi	r19, 0x00	; 0
    3282:	48 e4       	ldi	r20, 0x48	; 72
    3284:	0c 94 8f 18 	jmp	0x311e	; 0x311e <u8g_call_dev_fn>

00003288 <u8g_UpdateDimension>:
    3288:	cf 93       	push	r28
    328a:	df 93       	push	r29
    328c:	ec 01       	movw	r28, r24
    328e:	6a 81       	ldd	r22, Y+2	; 0x02
    3290:	7b 81       	ldd	r23, Y+3	; 0x03
    3292:	0e 94 1f 19 	call	0x323e	; 0x323e <u8g_GetWidthLL>
    3296:	88 83       	st	Y, r24
    3298:	6a 81       	ldd	r22, Y+2	; 0x02
    329a:	7b 81       	ldd	r23, Y+3	; 0x03
    329c:	ce 01       	movw	r24, r28
    329e:	0e 94 2f 19 	call	0x325e	; 0x325e <u8g_GetHeightLL>
    32a2:	89 83       	std	Y+1, r24	; 0x01
    32a4:	6a 81       	ldd	r22, Y+2	; 0x02
    32a6:	7b 81       	ldd	r23, Y+3	; 0x03
    32a8:	ce 01       	movw	r24, r28
    32aa:	0e 94 3f 19 	call	0x327e	; 0x327e <u8g_GetModeLL>
    32ae:	8b 87       	std	Y+11, r24	; 0x0b
    32b0:	9e 01       	movw	r18, r28
    32b2:	2d 5c       	subi	r18, 0xCD	; 205
    32b4:	3f 4f       	sbci	r19, 0xFF	; 255
    32b6:	6a 81       	ldd	r22, Y+2	; 0x02
    32b8:	7b 81       	ldd	r23, Y+3	; 0x03
    32ba:	47 e1       	ldi	r20, 0x17	; 23
    32bc:	ce 01       	movw	r24, r28
    32be:	df 91       	pop	r29
    32c0:	cf 91       	pop	r28
    32c2:	0c 94 8f 18 	jmp	0x311e	; 0x311e <u8g_call_dev_fn>

000032c6 <u8g_Begin>:
    32c6:	cf 93       	push	r28
    32c8:	df 93       	push	r29
    32ca:	ec 01       	movw	r28, r24
    32cc:	6a 81       	ldd	r22, Y+2	; 0x02
    32ce:	7b 81       	ldd	r23, Y+3	; 0x03
    32d0:	0e 94 93 18 	call	0x3126	; 0x3126 <u8g_InitLL>
    32d4:	88 23       	and	r24, r24
    32d6:	21 f0       	breq	.+8      	; 0x32e0 <u8g_Begin+0x1a>
    32d8:	ce 01       	movw	r24, r28
    32da:	0e 94 44 19 	call	0x3288	; 0x3288 <u8g_UpdateDimension>
    32de:	81 e0       	ldi	r24, 0x01	; 1
    32e0:	df 91       	pop	r29
    32e2:	cf 91       	pop	r28
    32e4:	08 95       	ret

000032e6 <u8g_InitI2C>:
    32e6:	ef 92       	push	r14
    32e8:	ff 92       	push	r15
    32ea:	0f 93       	push	r16
    32ec:	1f 93       	push	r17
    32ee:	cf 93       	push	r28
    32f0:	df 93       	push	r29
    32f2:	1f 92       	push	r1
    32f4:	cd b7       	in	r28, 0x3d	; 61
    32f6:	de b7       	in	r29, 0x3e	; 62
    32f8:	7c 01       	movw	r14, r24
    32fa:	8b 01       	movw	r16, r22
    32fc:	49 83       	std	Y+1, r20	; 0x01
    32fe:	0e 94 64 18 	call	0x30c8	; 0x30c8 <u8g_init_data>
    3302:	f7 01       	movw	r30, r14
    3304:	13 83       	std	Z+3, r17	; 0x03
    3306:	02 83       	std	Z+2, r16	; 0x02
    3308:	49 81       	ldd	r20, Y+1	; 0x01
    330a:	46 a7       	std	Z+46, r20	; 0x2e
    330c:	c7 01       	movw	r24, r14
    330e:	0f 90       	pop	r0
    3310:	df 91       	pop	r29
    3312:	cf 91       	pop	r28
    3314:	1f 91       	pop	r17
    3316:	0f 91       	pop	r16
    3318:	ff 90       	pop	r15
    331a:	ef 90       	pop	r14
    331c:	0c 94 63 19 	jmp	0x32c6	; 0x32c6 <u8g_Begin>

00003320 <u8g_FirstPage>:
    3320:	fc 01       	movw	r30, r24
    3322:	62 81       	ldd	r22, Z+2	; 0x02
    3324:	73 81       	ldd	r23, Z+3	; 0x03
    3326:	0c 94 c5 18 	jmp	0x318a	; 0x318a <u8g_FirstPageLL>

0000332a <u8g_NextPage>:
    332a:	cf 93       	push	r28
    332c:	df 93       	push	r29
    332e:	ec 01       	movw	r28, r24
    3330:	ee 85       	ldd	r30, Y+14	; 0x0e
    3332:	ff 85       	ldd	r31, Y+15	; 0x0f
    3334:	30 97       	sbiw	r30, 0x00	; 0
    3336:	09 f0       	breq	.+2      	; 0x333a <u8g_NextPage+0x10>
    3338:	09 95       	icall
    333a:	6a 81       	ldd	r22, Y+2	; 0x02
    333c:	7b 81       	ldd	r23, Y+3	; 0x03
    333e:	ce 01       	movw	r24, r28
    3340:	df 91       	pop	r29
    3342:	cf 91       	pop	r28
    3344:	0c 94 ea 18 	jmp	0x31d4	; 0x31d4 <u8g_NextPageLL>

00003348 <u8g_DrawPixel>:
    3348:	36 2f       	mov	r19, r22
    334a:	24 2f       	mov	r18, r20
    334c:	fc 01       	movw	r30, r24
    334e:	62 81       	ldd	r22, Z+2	; 0x02
    3350:	73 81       	ldd	r23, Z+3	; 0x03
    3352:	43 2f       	mov	r20, r19
    3354:	0c 94 16 19 	jmp	0x322c	; 0x322c <u8g_DrawPixelLL>

00003358 <u8g_Draw8Pixel>:
    3358:	0f 93       	push	r16
    335a:	fc 01       	movw	r30, r24
    335c:	82 81       	ldd	r24, Z+2	; 0x02
    335e:	93 81       	ldd	r25, Z+3	; 0x03
    3360:	64 8f       	std	Z+28, r22	; 0x1c
    3362:	45 8f       	std	Z+29, r20	; 0x1d
    3364:	27 8f       	std	Z+31, r18	; 0x1f
    3366:	06 8f       	std	Z+30, r16	; 0x1e
    3368:	9f 01       	movw	r18, r30
    336a:	24 5e       	subi	r18, 0xE4	; 228
    336c:	3f 4f       	sbci	r19, 0xFF	; 255
    336e:	4b e3       	ldi	r20, 0x3B	; 59
    3370:	bc 01       	movw	r22, r24
    3372:	cf 01       	movw	r24, r30
    3374:	0f 91       	pop	r16
    3376:	0c 94 8f 18 	jmp	0x311e	; 0x311e <u8g_call_dev_fn>

0000337a <u8g_page_First>:
    337a:	fc 01       	movw	r30, r24
    337c:	12 82       	std	Z+2, r1	; 0x02
    337e:	80 81       	ld	r24, Z
    3380:	81 50       	subi	r24, 0x01	; 1
    3382:	83 83       	std	Z+3, r24	; 0x03
    3384:	14 82       	std	Z+4, r1	; 0x04
    3386:	08 95       	ret

00003388 <u8g_page_Next>:
    3388:	fc 01       	movw	r30, r24
    338a:	80 81       	ld	r24, Z
    338c:	92 81       	ldd	r25, Z+2	; 0x02
    338e:	98 0f       	add	r25, r24
    3390:	92 83       	std	Z+2, r25	; 0x02
    3392:	21 81       	ldd	r18, Z+1	; 0x01
    3394:	92 17       	cp	r25, r18
    3396:	60 f4       	brcc	.+24     	; 0x33b0 <u8g_page_Next+0x28>
    3398:	94 81       	ldd	r25, Z+4	; 0x04
    339a:	9f 5f       	subi	r25, 0xFF	; 255
    339c:	94 83       	std	Z+4, r25	; 0x04
    339e:	93 81       	ldd	r25, Z+3	; 0x03
    33a0:	89 0f       	add	r24, r25
    33a2:	82 17       	cp	r24, r18
    33a4:	10 f0       	brcs	.+4      	; 0x33aa <u8g_page_Next+0x22>
    33a6:	8f ef       	ldi	r24, 0xFF	; 255
    33a8:	82 0f       	add	r24, r18
    33aa:	83 83       	std	Z+3, r24	; 0x03
    33ac:	81 e0       	ldi	r24, 0x01	; 1
    33ae:	08 95       	ret
    33b0:	80 e0       	ldi	r24, 0x00	; 0
    33b2:	08 95       	ret

000033b4 <u8g_pb_Clear>:
    33b4:	dc 01       	movw	r26, r24
    33b6:	16 96       	adiw	r26, 0x06	; 6
    33b8:	ed 91       	ld	r30, X+
    33ba:	fc 91       	ld	r31, X
    33bc:	17 97       	sbiw	r26, 0x07	; 7
    33be:	15 96       	adiw	r26, 0x05	; 5
    33c0:	8c 91       	ld	r24, X
    33c2:	9f 01       	movw	r18, r30
    33c4:	28 0f       	add	r18, r24
    33c6:	31 1d       	adc	r19, r1
    33c8:	c9 01       	movw	r24, r18
    33ca:	11 92       	st	Z+, r1
    33cc:	e8 17       	cp	r30, r24
    33ce:	f9 07       	cpc	r31, r25
    33d0:	e1 f7       	brne	.-8      	; 0x33ca <u8g_pb_Clear+0x16>
    33d2:	08 95       	ret

000033d4 <u8g_pb_IsYIntersection>:
    33d4:	fc 01       	movw	r30, r24
    33d6:	91 e0       	ldi	r25, 0x01	; 1
    33d8:	83 81       	ldd	r24, Z+3	; 0x03
    33da:	86 17       	cp	r24, r22
    33dc:	08 f4       	brcc	.+2      	; 0x33e0 <u8g_pb_IsYIntersection+0xc>
    33de:	90 e0       	ldi	r25, 0x00	; 0
    33e0:	31 e0       	ldi	r19, 0x01	; 1
    33e2:	46 17       	cp	r20, r22
    33e4:	08 f0       	brcs	.+2      	; 0x33e8 <u8g_pb_IsYIntersection+0x14>
    33e6:	30 e0       	ldi	r19, 0x00	; 0
    33e8:	83 2f       	mov	r24, r19
    33ea:	89 2b       	or	r24, r25
    33ec:	21 e0       	ldi	r18, 0x01	; 1
    33ee:	52 81       	ldd	r21, Z+2	; 0x02
    33f0:	45 17       	cp	r20, r21
    33f2:	08 f4       	brcc	.+2      	; 0x33f6 <u8g_pb_IsYIntersection+0x22>
    33f4:	20 e0       	ldi	r18, 0x00	; 0
    33f6:	28 23       	and	r18, r24
    33f8:	83 2f       	mov	r24, r19
    33fa:	89 23       	and	r24, r25
    33fc:	82 2b       	or	r24, r18
    33fe:	08 95       	ret

00003400 <u8g_pb_GetPageBox>:
    3400:	dc 01       	movw	r26, r24
    3402:	fb 01       	movw	r30, r22
    3404:	10 82       	st	Z, r1
    3406:	12 96       	adiw	r26, 0x02	; 2
    3408:	8c 91       	ld	r24, X
    340a:	12 97       	sbiw	r26, 0x02	; 2
    340c:	81 83       	std	Z+1, r24	; 0x01
    340e:	15 96       	adiw	r26, 0x05	; 5
    3410:	8c 91       	ld	r24, X
    3412:	15 97       	sbiw	r26, 0x05	; 5
    3414:	81 50       	subi	r24, 0x01	; 1
    3416:	82 83       	std	Z+2, r24	; 0x02
    3418:	13 96       	adiw	r26, 0x03	; 3
    341a:	8c 91       	ld	r24, X
    341c:	83 83       	std	Z+3, r24	; 0x03
    341e:	08 95       	ret

00003420 <u8g_pb_Is8PixelVisible>:
    3420:	fb 01       	movw	r30, r22
    3422:	41 81       	ldd	r20, Z+1	; 0x01
    3424:	23 81       	ldd	r18, Z+3	; 0x03
    3426:	21 30       	cpi	r18, 0x01	; 1
    3428:	29 f0       	breq	.+10     	; 0x3434 <u8g_pb_Is8PixelVisible+0x14>
    342a:	23 30       	cpi	r18, 0x03	; 3
    342c:	31 f4       	brne	.+12     	; 0x343a <u8g_pb_Is8PixelVisible+0x1a>
    342e:	68 ef       	ldi	r22, 0xF8	; 248
    3430:	64 0f       	add	r22, r20
    3432:	04 c0       	rjmp	.+8      	; 0x343c <u8g_pb_Is8PixelVisible+0x1c>
    3434:	64 2f       	mov	r22, r20
    3436:	48 5f       	subi	r20, 0xF8	; 248
    3438:	01 c0       	rjmp	.+2      	; 0x343c <u8g_pb_Is8PixelVisible+0x1c>
    343a:	64 2f       	mov	r22, r20
    343c:	0c 94 ea 19 	jmp	0x33d4	; 0x33d4 <u8g_pb_IsYIntersection>

00003440 <u8g_pb_WriteBuffer>:
    3440:	fc 01       	movw	r30, r24
    3442:	cb 01       	movw	r24, r22
    3444:	ba 01       	movw	r22, r20
    3446:	26 81       	ldd	r18, Z+6	; 0x06
    3448:	37 81       	ldd	r19, Z+7	; 0x07
    344a:	45 81       	ldd	r20, Z+5	; 0x05
    344c:	0c 94 25 14 	jmp	0x284a	; 0x284a <u8g_WriteSequence>

00003450 <u8g_pb8v1_set_pixel>:
    3450:	dc 01       	movw	r26, r24
    3452:	16 96       	adiw	r26, 0x06	; 6
    3454:	ed 91       	ld	r30, X+
    3456:	fc 91       	ld	r31, X
    3458:	17 97       	sbiw	r26, 0x07	; 7
    345a:	12 96       	adiw	r26, 0x02	; 2
    345c:	8c 91       	ld	r24, X
    345e:	48 1b       	sub	r20, r24
    3460:	47 70       	andi	r20, 0x07	; 7
    3462:	81 e0       	ldi	r24, 0x01	; 1
    3464:	90 e0       	ldi	r25, 0x00	; 0
    3466:	01 c0       	rjmp	.+2      	; 0x346a <u8g_pb8v1_set_pixel+0x1a>
    3468:	88 0f       	add	r24, r24
    346a:	4a 95       	dec	r20
    346c:	ea f7       	brpl	.-6      	; 0x3468 <u8g_pb8v1_set_pixel+0x18>
    346e:	e6 0f       	add	r30, r22
    3470:	f1 1d       	adc	r31, r1
    3472:	30 81       	ld	r19, Z
    3474:	22 23       	and	r18, r18
    3476:	11 f0       	breq	.+4      	; 0x347c <u8g_pb8v1_set_pixel+0x2c>
    3478:	83 2b       	or	r24, r19
    347a:	02 c0       	rjmp	.+4      	; 0x3480 <u8g_pb8v1_set_pixel+0x30>
    347c:	80 95       	com	r24
    347e:	83 23       	and	r24, r19
    3480:	80 83       	st	Z, r24
    3482:	08 95       	ret

00003484 <u8g_pb8v1_SetPixel>:
    3484:	fb 01       	movw	r30, r22
    3486:	41 81       	ldd	r20, Z+1	; 0x01
    3488:	dc 01       	movw	r26, r24
    348a:	12 96       	adiw	r26, 0x02	; 2
    348c:	2c 91       	ld	r18, X
    348e:	12 97       	sbiw	r26, 0x02	; 2
    3490:	42 17       	cp	r20, r18
    3492:	68 f0       	brcs	.+26     	; 0x34ae <u8g_pb8v1_SetPixel+0x2a>
    3494:	13 96       	adiw	r26, 0x03	; 3
    3496:	2c 91       	ld	r18, X
    3498:	13 97       	sbiw	r26, 0x03	; 3
    349a:	24 17       	cp	r18, r20
    349c:	40 f0       	brcs	.+16     	; 0x34ae <u8g_pb8v1_SetPixel+0x2a>
    349e:	60 81       	ld	r22, Z
    34a0:	15 96       	adiw	r26, 0x05	; 5
    34a2:	2c 91       	ld	r18, X
    34a4:	62 17       	cp	r22, r18
    34a6:	18 f4       	brcc	.+6      	; 0x34ae <u8g_pb8v1_SetPixel+0x2a>
    34a8:	24 81       	ldd	r18, Z+4	; 0x04
    34aa:	0c 94 28 1a 	jmp	0x3450	; 0x3450 <u8g_pb8v1_set_pixel>
    34ae:	08 95       	ret

000034b0 <u8g_pb8v1_Set8PixelOpt2>:
    34b0:	cf 92       	push	r12
    34b2:	df 92       	push	r13
    34b4:	ff 92       	push	r15
    34b6:	0f 93       	push	r16
    34b8:	1f 93       	push	r17
    34ba:	cf 93       	push	r28
    34bc:	df 93       	push	r29
    34be:	6c 01       	movw	r12, r24
    34c0:	eb 01       	movw	r28, r22
    34c2:	fa 80       	ldd	r15, Y+2	; 0x02
    34c4:	9b 81       	ldd	r25, Y+3	; 0x03
    34c6:	91 30       	cpi	r25, 0x01	; 1
    34c8:	51 f0       	breq	.+20     	; 0x34de <u8g_pb8v1_Set8PixelOpt2+0x2e>
    34ca:	30 f0       	brcs	.+12     	; 0x34d8 <u8g_pb8v1_Set8PixelOpt2+0x28>
    34cc:	92 30       	cpi	r25, 0x02	; 2
    34ce:	49 f0       	breq	.+18     	; 0x34e2 <u8g_pb8v1_Set8PixelOpt2+0x32>
    34d0:	93 30       	cpi	r25, 0x03	; 3
    34d2:	51 f4       	brne	.+20     	; 0x34e8 <u8g_pb8v1_Set8PixelOpt2+0x38>
    34d4:	1f ef       	ldi	r17, 0xFF	; 255
    34d6:	09 c0       	rjmp	.+18     	; 0x34ea <u8g_pb8v1_Set8PixelOpt2+0x3a>
    34d8:	10 e0       	ldi	r17, 0x00	; 0
    34da:	01 e0       	ldi	r16, 0x01	; 1
    34dc:	07 c0       	rjmp	.+14     	; 0x34ec <u8g_pb8v1_Set8PixelOpt2+0x3c>
    34de:	11 e0       	ldi	r17, 0x01	; 1
    34e0:	04 c0       	rjmp	.+8      	; 0x34ea <u8g_pb8v1_Set8PixelOpt2+0x3a>
    34e2:	10 e0       	ldi	r17, 0x00	; 0
    34e4:	0f ef       	ldi	r16, 0xFF	; 255
    34e6:	02 c0       	rjmp	.+4      	; 0x34ec <u8g_pb8v1_Set8PixelOpt2+0x3c>
    34e8:	10 e0       	ldi	r17, 0x00	; 0
    34ea:	00 e0       	ldi	r16, 0x00	; 0
    34ec:	f7 fe       	sbrs	r15, 7
    34ee:	04 c0       	rjmp	.+8      	; 0x34f8 <u8g_pb8v1_Set8PixelOpt2+0x48>
    34f0:	be 01       	movw	r22, r28
    34f2:	c6 01       	movw	r24, r12
    34f4:	0e 94 42 1a 	call	0x3484	; 0x3484 <u8g_pb8v1_SetPixel>
    34f8:	98 81       	ld	r25, Y
    34fa:	90 0f       	add	r25, r16
    34fc:	98 83       	st	Y, r25
    34fe:	99 81       	ldd	r25, Y+1	; 0x01
    3500:	91 0f       	add	r25, r17
    3502:	99 83       	std	Y+1, r25	; 0x01
    3504:	ff 0c       	add	r15, r15
    3506:	91 f7       	brne	.-28     	; 0x34ec <u8g_pb8v1_Set8PixelOpt2+0x3c>
    3508:	df 91       	pop	r29
    350a:	cf 91       	pop	r28
    350c:	1f 91       	pop	r17
    350e:	0f 91       	pop	r16
    3510:	ff 90       	pop	r15
    3512:	df 90       	pop	r13
    3514:	cf 90       	pop	r12
    3516:	08 95       	ret

00003518 <u8g_dev_pb8v1_base_fn>:
    3518:	0f 93       	push	r16
    351a:	1f 93       	push	r17
    351c:	cf 93       	push	r28
    351e:	df 93       	push	r29
    3520:	89 01       	movw	r16, r18
    3522:	fb 01       	movw	r30, r22
    3524:	c2 81       	ldd	r28, Z+2	; 0x02
    3526:	d3 81       	ldd	r29, Z+3	; 0x03
    3528:	42 33       	cpi	r20, 0x32	; 50
    352a:	f9 f0       	breq	.+62     	; 0x356a <u8g_dev_pb8v1_base_fn+0x52>
    352c:	68 f4       	brcc	.+26     	; 0x3548 <u8g_dev_pb8v1_base_fn+0x30>
    352e:	45 31       	cpi	r20, 0x15	; 21
    3530:	09 f1       	breq	.+66     	; 0x3574 <u8g_dev_pb8v1_base_fn+0x5c>
    3532:	47 31       	cpi	r20, 0x17	; 23
    3534:	41 f1       	breq	.+80     	; 0x3586 <u8g_dev_pb8v1_base_fn+0x6e>
    3536:	44 31       	cpi	r20, 0x14	; 20
    3538:	81 f5       	brne	.+96     	; 0x359a <u8g_dev_pb8v1_base_fn+0x82>
    353a:	ce 01       	movw	r24, r28
    353c:	0e 94 da 19 	call	0x33b4	; 0x33b4 <u8g_pb_Clear>
    3540:	ce 01       	movw	r24, r28
    3542:	0e 94 bd 19 	call	0x337a	; 0x337a <u8g_page_First>
    3546:	29 c0       	rjmp	.+82     	; 0x359a <u8g_dev_pb8v1_base_fn+0x82>
    3548:	46 34       	cpi	r20, 0x46	; 70
    354a:	11 f1       	breq	.+68     	; 0x3590 <u8g_dev_pb8v1_base_fn+0x78>
    354c:	47 34       	cpi	r20, 0x47	; 71
    354e:	11 f1       	breq	.+68     	; 0x3594 <u8g_dev_pb8v1_base_fn+0x7c>
    3550:	4b 33       	cpi	r20, 0x3B	; 59
    3552:	19 f5       	brne	.+70     	; 0x359a <u8g_dev_pb8v1_base_fn+0x82>
    3554:	b9 01       	movw	r22, r18
    3556:	ce 01       	movw	r24, r28
    3558:	0e 94 10 1a 	call	0x3420	; 0x3420 <u8g_pb_Is8PixelVisible>
    355c:	88 23       	and	r24, r24
    355e:	e9 f0       	breq	.+58     	; 0x359a <u8g_dev_pb8v1_base_fn+0x82>
    3560:	b8 01       	movw	r22, r16
    3562:	ce 01       	movw	r24, r28
    3564:	0e 94 58 1a 	call	0x34b0	; 0x34b0 <u8g_pb8v1_Set8PixelOpt2>
    3568:	18 c0       	rjmp	.+48     	; 0x359a <u8g_dev_pb8v1_base_fn+0x82>
    356a:	b9 01       	movw	r22, r18
    356c:	ce 01       	movw	r24, r28
    356e:	0e 94 42 1a 	call	0x3484	; 0x3484 <u8g_pb8v1_SetPixel>
    3572:	13 c0       	rjmp	.+38     	; 0x359a <u8g_dev_pb8v1_base_fn+0x82>
    3574:	ce 01       	movw	r24, r28
    3576:	0e 94 c4 19 	call	0x3388	; 0x3388 <u8g_page_Next>
    357a:	88 23       	and	r24, r24
    357c:	79 f0       	breq	.+30     	; 0x359c <u8g_dev_pb8v1_base_fn+0x84>
    357e:	ce 01       	movw	r24, r28
    3580:	0e 94 da 19 	call	0x33b4	; 0x33b4 <u8g_pb_Clear>
    3584:	0a c0       	rjmp	.+20     	; 0x359a <u8g_dev_pb8v1_base_fn+0x82>
    3586:	b9 01       	movw	r22, r18
    3588:	ce 01       	movw	r24, r28
    358a:	0e 94 00 1a 	call	0x3400	; 0x3400 <u8g_pb_GetPageBox>
    358e:	05 c0       	rjmp	.+10     	; 0x359a <u8g_dev_pb8v1_base_fn+0x82>
    3590:	8d 81       	ldd	r24, Y+5	; 0x05
    3592:	01 c0       	rjmp	.+2      	; 0x3596 <u8g_dev_pb8v1_base_fn+0x7e>
    3594:	89 81       	ldd	r24, Y+1	; 0x01
    3596:	f8 01       	movw	r30, r16
    3598:	80 83       	st	Z, r24
    359a:	81 e0       	ldi	r24, 0x01	; 1
    359c:	df 91       	pop	r29
    359e:	cf 91       	pop	r28
    35a0:	1f 91       	pop	r17
    35a2:	0f 91       	pop	r16
    35a4:	08 95       	ret

000035a6 <u8g_draw_hline>:
    35a6:	cf 92       	push	r12
    35a8:	df 92       	push	r13
    35aa:	ef 92       	push	r14
    35ac:	ff 92       	push	r15
    35ae:	0f 93       	push	r16
    35b0:	1f 93       	push	r17
    35b2:	cf 93       	push	r28
    35b4:	df 93       	push	r29
    35b6:	7c 01       	movw	r14, r24
    35b8:	d6 2f       	mov	r29, r22
    35ba:	d4 2e       	mov	r13, r20
    35bc:	c2 2f       	mov	r28, r18
    35be:	12 2f       	mov	r17, r18
    35c0:	c6 2e       	mov	r12, r22
    35c2:	c2 0e       	add	r12, r18
    35c4:	6c 2d       	mov	r22, r12
    35c6:	61 1b       	sub	r22, r17
    35c8:	18 30       	cpi	r17, 0x08	; 8
    35ca:	40 f0       	brcs	.+16     	; 0x35dc <u8g_draw_hline+0x36>
    35cc:	0f ef       	ldi	r16, 0xFF	; 255
    35ce:	20 e0       	ldi	r18, 0x00	; 0
    35d0:	4d 2d       	mov	r20, r13
    35d2:	c7 01       	movw	r24, r14
    35d4:	0e 94 ac 19 	call	0x3358	; 0x3358 <u8g_Draw8Pixel>
    35d8:	18 50       	subi	r17, 0x08	; 8
    35da:	f4 cf       	rjmp	.-24     	; 0x35c4 <u8g_draw_hline+0x1e>
    35dc:	6c 2f       	mov	r22, r28
    35de:	68 7f       	andi	r22, 0xF8	; 248
    35e0:	6d 0f       	add	r22, r29
    35e2:	2c 2f       	mov	r18, r28
    35e4:	27 70       	andi	r18, 0x07	; 7
    35e6:	79 f0       	breq	.+30     	; 0x3606 <u8g_draw_hline+0x60>
    35e8:	97 e0       	ldi	r25, 0x07	; 7
    35ea:	29 27       	eor	r18, r25
    35ec:	2f 5f       	subi	r18, 0xFF	; 255
    35ee:	27 70       	andi	r18, 0x07	; 7
    35f0:	0f ef       	ldi	r16, 0xFF	; 255
    35f2:	10 e0       	ldi	r17, 0x00	; 0
    35f4:	01 c0       	rjmp	.+2      	; 0x35f8 <u8g_draw_hline+0x52>
    35f6:	00 0f       	add	r16, r16
    35f8:	2a 95       	dec	r18
    35fa:	ea f7       	brpl	.-6      	; 0x35f6 <u8g_draw_hline+0x50>
    35fc:	20 e0       	ldi	r18, 0x00	; 0
    35fe:	4d 2d       	mov	r20, r13
    3600:	c7 01       	movw	r24, r14
    3602:	0e 94 ac 19 	call	0x3358	; 0x3358 <u8g_Draw8Pixel>
    3606:	df 91       	pop	r29
    3608:	cf 91       	pop	r28
    360a:	1f 91       	pop	r17
    360c:	0f 91       	pop	r16
    360e:	ff 90       	pop	r15
    3610:	ef 90       	pop	r14
    3612:	df 90       	pop	r13
    3614:	cf 90       	pop	r12
    3616:	08 95       	ret

00003618 <u8g_draw_vline>:
    3618:	cf 92       	push	r12
    361a:	df 92       	push	r13
    361c:	ef 92       	push	r14
    361e:	ff 92       	push	r15
    3620:	0f 93       	push	r16
    3622:	1f 93       	push	r17
    3624:	cf 93       	push	r28
    3626:	df 93       	push	r29
    3628:	7c 01       	movw	r14, r24
    362a:	d6 2e       	mov	r13, r22
    362c:	d4 2f       	mov	r29, r20
    362e:	c2 2f       	mov	r28, r18
    3630:	12 2f       	mov	r17, r18
    3632:	c4 2e       	mov	r12, r20
    3634:	c2 0e       	add	r12, r18
    3636:	4c 2d       	mov	r20, r12
    3638:	41 1b       	sub	r20, r17
    363a:	18 30       	cpi	r17, 0x08	; 8
    363c:	40 f0       	brcs	.+16     	; 0x364e <u8g_draw_vline+0x36>
    363e:	0f ef       	ldi	r16, 0xFF	; 255
    3640:	21 e0       	ldi	r18, 0x01	; 1
    3642:	6d 2d       	mov	r22, r13
    3644:	c7 01       	movw	r24, r14
    3646:	0e 94 ac 19 	call	0x3358	; 0x3358 <u8g_Draw8Pixel>
    364a:	18 50       	subi	r17, 0x08	; 8
    364c:	f4 cf       	rjmp	.-24     	; 0x3636 <u8g_draw_vline+0x1e>
    364e:	4c 2f       	mov	r20, r28
    3650:	48 7f       	andi	r20, 0xF8	; 248
    3652:	4d 0f       	add	r20, r29
    3654:	2c 2f       	mov	r18, r28
    3656:	27 70       	andi	r18, 0x07	; 7
    3658:	79 f0       	breq	.+30     	; 0x3678 <u8g_draw_vline+0x60>
    365a:	97 e0       	ldi	r25, 0x07	; 7
    365c:	29 27       	eor	r18, r25
    365e:	2f 5f       	subi	r18, 0xFF	; 255
    3660:	27 70       	andi	r18, 0x07	; 7
    3662:	0f ef       	ldi	r16, 0xFF	; 255
    3664:	10 e0       	ldi	r17, 0x00	; 0
    3666:	01 c0       	rjmp	.+2      	; 0x366a <u8g_draw_vline+0x52>
    3668:	00 0f       	add	r16, r16
    366a:	2a 95       	dec	r18
    366c:	ea f7       	brpl	.-6      	; 0x3668 <u8g_draw_vline+0x50>
    366e:	21 e0       	ldi	r18, 0x01	; 1
    3670:	6d 2d       	mov	r22, r13
    3672:	c7 01       	movw	r24, r14
    3674:	0e 94 ac 19 	call	0x3358	; 0x3358 <u8g_Draw8Pixel>
    3678:	df 91       	pop	r29
    367a:	cf 91       	pop	r28
    367c:	1f 91       	pop	r17
    367e:	0f 91       	pop	r16
    3680:	ff 90       	pop	r15
    3682:	ef 90       	pop	r14
    3684:	df 90       	pop	r13
    3686:	cf 90       	pop	r12
    3688:	08 95       	ret

0000368a <u8g_DrawFrame>:
    368a:	df 92       	push	r13
    368c:	ef 92       	push	r14
    368e:	ff 92       	push	r15
    3690:	0f 93       	push	r16
    3692:	1f 93       	push	r17
    3694:	cf 93       	push	r28
    3696:	df 93       	push	r29
    3698:	7c 01       	movw	r14, r24
    369a:	16 2f       	mov	r17, r22
    369c:	c4 2f       	mov	r28, r20
    369e:	d2 2e       	mov	r13, r18
    36a0:	d0 2f       	mov	r29, r16
    36a2:	0e 94 cb 13 	call	0x2796	; 0x2796 <u8g_IsBBXIntersection>
    36a6:	88 23       	and	r24, r24
    36a8:	19 f1       	breq	.+70     	; 0x36f0 <u8g_DrawFrame+0x66>
    36aa:	2d 2d       	mov	r18, r13
    36ac:	4c 2f       	mov	r20, r28
    36ae:	61 2f       	mov	r22, r17
    36b0:	c7 01       	movw	r24, r14
    36b2:	0e 94 d3 1a 	call	0x35a6	; 0x35a6 <u8g_draw_hline>
    36b6:	2d 2f       	mov	r18, r29
    36b8:	4c 2f       	mov	r20, r28
    36ba:	61 2f       	mov	r22, r17
    36bc:	c7 01       	movw	r24, r14
    36be:	0e 94 0c 1b 	call	0x3618	; 0x3618 <u8g_draw_vline>
    36c2:	6f ef       	ldi	r22, 0xFF	; 255
    36c4:	6d 0d       	add	r22, r13
    36c6:	61 0f       	add	r22, r17
    36c8:	2d 2f       	mov	r18, r29
    36ca:	4c 2f       	mov	r20, r28
    36cc:	c7 01       	movw	r24, r14
    36ce:	0e 94 0c 1b 	call	0x3618	; 0x3618 <u8g_draw_vline>
    36d2:	4f ef       	ldi	r20, 0xFF	; 255
    36d4:	4d 0f       	add	r20, r29
    36d6:	4c 0f       	add	r20, r28
    36d8:	2d 2d       	mov	r18, r13
    36da:	61 2f       	mov	r22, r17
    36dc:	c7 01       	movw	r24, r14
    36de:	df 91       	pop	r29
    36e0:	cf 91       	pop	r28
    36e2:	1f 91       	pop	r17
    36e4:	0f 91       	pop	r16
    36e6:	ff 90       	pop	r15
    36e8:	ef 90       	pop	r14
    36ea:	df 90       	pop	r13
    36ec:	0c 94 d3 1a 	jmp	0x35a6	; 0x35a6 <u8g_draw_hline>
    36f0:	df 91       	pop	r29
    36f2:	cf 91       	pop	r28
    36f4:	1f 91       	pop	r17
    36f6:	0f 91       	pop	r16
    36f8:	ff 90       	pop	r15
    36fa:	ef 90       	pop	r14
    36fc:	df 90       	pop	r13
    36fe:	08 95       	ret

00003700 <u8g_state_dummy_cb>:
    3700:	08 95       	ret

00003702 <_ZN4UART4initEv>:
    3702:	10 92 c0 00 	sts	0x00C0, r1	; 0x8000c0 <__TEXT_REGION_LENGTH__+0x7e00c0>
    3706:	80 e1       	ldi	r24, 0x10	; 16
    3708:	80 93 c4 00 	sts	0x00C4, r24	; 0x8000c4 <__TEXT_REGION_LENGTH__+0x7e00c4>
    370c:	10 92 c5 00 	sts	0x00C5, r1	; 0x8000c5 <__TEXT_REGION_LENGTH__+0x7e00c5>
    3710:	e1 ec       	ldi	r30, 0xC1	; 193
    3712:	f0 e0       	ldi	r31, 0x00	; 0
    3714:	80 81       	ld	r24, Z
    3716:	88 69       	ori	r24, 0x98	; 152
    3718:	80 83       	st	Z, r24
    371a:	e2 ec       	ldi	r30, 0xC2	; 194
    371c:	f0 e0       	ldi	r31, 0x00	; 0
    371e:	80 81       	ld	r24, Z
    3720:	8e 60       	ori	r24, 0x0E	; 14
    3722:	80 83       	st	Z, r24
    3724:	08 95       	ret

00003726 <_ZN4UART3addEhPFvhE>:
    3726:	63 30       	cpi	r22, 0x03	; 3
    3728:	38 f4       	brcc	.+14     	; 0x3738 <_ZN4UART3addEhPFvhE+0x12>
    372a:	fc 01       	movw	r30, r24
    372c:	e6 0f       	add	r30, r22
    372e:	f1 1d       	adc	r31, r1
    3730:	e6 0f       	add	r30, r22
    3732:	f1 1d       	adc	r31, r1
    3734:	51 83       	std	Z+1, r21	; 0x01
    3736:	40 83       	st	Z, r20
    3738:	08 95       	ret

0000373a <_ZN4UART7receiveEh>:
    373a:	ef 92       	push	r14
    373c:	ff 92       	push	r15
    373e:	0f 93       	push	r16
    3740:	1f 93       	push	r17
    3742:	cf 93       	push	r28
    3744:	df 93       	push	r29
    3746:	1f 92       	push	r1
    3748:	cd b7       	in	r28, 0x3d	; 61
    374a:	de b7       	in	r29, 0x3e	; 62
    374c:	7c 01       	movw	r14, r24
    374e:	8c 01       	movw	r16, r24
    3750:	0a 5f       	subi	r16, 0xFA	; 250
    3752:	1f 4f       	sbci	r17, 0xFF	; 255
    3754:	d7 01       	movw	r26, r14
    3756:	ed 91       	ld	r30, X+
    3758:	fd 91       	ld	r31, X+
    375a:	7d 01       	movw	r14, r26
    375c:	30 97       	sbiw	r30, 0x00	; 0
    375e:	21 f0       	breq	.+8      	; 0x3768 <_ZN4UART7receiveEh+0x2e>
    3760:	86 2f       	mov	r24, r22
    3762:	69 83       	std	Y+1, r22	; 0x01
    3764:	09 95       	icall
    3766:	69 81       	ldd	r22, Y+1	; 0x01
    3768:	e0 16       	cp	r14, r16
    376a:	f1 06       	cpc	r15, r17
    376c:	99 f7       	brne	.-26     	; 0x3754 <_ZN4UART7receiveEh+0x1a>
    376e:	0f 90       	pop	r0
    3770:	df 91       	pop	r29
    3772:	cf 91       	pop	r28
    3774:	1f 91       	pop	r17
    3776:	0f 91       	pop	r16
    3778:	ff 90       	pop	r15
    377a:	ef 90       	pop	r14
    377c:	08 95       	ret

0000377e <_ZN4UART5writeEPc>:
    377e:	fb 01       	movw	r30, r22
    3780:	81 91       	ld	r24, Z+
    3782:	bf 01       	movw	r22, r30
    3784:	88 23       	and	r24, r24
    3786:	39 f0       	breq	.+14     	; 0x3796 <_ZN4UART5writeEPc+0x18>
    3788:	90 91 c0 00 	lds	r25, 0x00C0	; 0x8000c0 <__TEXT_REGION_LENGTH__+0x7e00c0>
    378c:	95 ff       	sbrs	r25, 5
    378e:	fc cf       	rjmp	.-8      	; 0x3788 <_ZN4UART5writeEPc+0xa>
    3790:	80 93 c6 00 	sts	0x00C6, r24	; 0x8000c6 <__TEXT_REGION_LENGTH__+0x7e00c6>
    3794:	f4 cf       	rjmp	.-24     	; 0x377e <_ZN4UART5writeEPc>
    3796:	08 95       	ret

00003798 <__vector_18>:
    3798:	1f 92       	push	r1
    379a:	0f 92       	push	r0
    379c:	0f b6       	in	r0, 0x3f	; 63
    379e:	0f 92       	push	r0
    37a0:	11 24       	eor	r1, r1
    37a2:	2f 93       	push	r18
    37a4:	3f 93       	push	r19
    37a6:	4f 93       	push	r20
    37a8:	5f 93       	push	r21
    37aa:	6f 93       	push	r22
    37ac:	7f 93       	push	r23
    37ae:	8f 93       	push	r24
    37b0:	9f 93       	push	r25
    37b2:	af 93       	push	r26
    37b4:	bf 93       	push	r27
    37b6:	ef 93       	push	r30
    37b8:	ff 93       	push	r31
    37ba:	60 91 c6 00 	lds	r22, 0x00C6	; 0x8000c6 <__TEXT_REGION_LENGTH__+0x7e00c6>
    37be:	8b e4       	ldi	r24, 0x4B	; 75
    37c0:	95 e0       	ldi	r25, 0x05	; 5
    37c2:	0e 94 9d 1b 	call	0x373a	; 0x373a <_ZN4UART7receiveEh>
    37c6:	ff 91       	pop	r31
    37c8:	ef 91       	pop	r30
    37ca:	bf 91       	pop	r27
    37cc:	af 91       	pop	r26
    37ce:	9f 91       	pop	r25
    37d0:	8f 91       	pop	r24
    37d2:	7f 91       	pop	r23
    37d4:	6f 91       	pop	r22
    37d6:	5f 91       	pop	r21
    37d8:	4f 91       	pop	r20
    37da:	3f 91       	pop	r19
    37dc:	2f 91       	pop	r18
    37de:	0f 90       	pop	r0
    37e0:	0f be       	out	0x3f, r0	; 63
    37e2:	0f 90       	pop	r0
    37e4:	1f 90       	pop	r1
    37e6:	18 95       	reti

000037e8 <crc_accumulate>:
    37e8:	fb 01       	movw	r30, r22
    37ea:	20 81       	ld	r18, Z
    37ec:	82 27       	eor	r24, r18
    37ee:	90 e1       	ldi	r25, 0x10	; 16
    37f0:	89 9f       	mul	r24, r25
    37f2:	90 01       	movw	r18, r0
    37f4:	11 24       	eor	r1, r1
    37f6:	28 27       	eor	r18, r24
    37f8:	82 2f       	mov	r24, r18
    37fa:	90 e0       	ldi	r25, 0x00	; 0
    37fc:	58 2f       	mov	r21, r24
    37fe:	44 27       	eor	r20, r20
    3800:	9c 01       	movw	r18, r24
    3802:	63 e0       	ldi	r22, 0x03	; 3
    3804:	22 0f       	add	r18, r18
    3806:	33 1f       	adc	r19, r19
    3808:	6a 95       	dec	r22
    380a:	e1 f7       	brne	.-8      	; 0x3804 <crc_accumulate+0x1c>
    380c:	42 27       	eor	r20, r18
    380e:	53 27       	eor	r21, r19
    3810:	21 81       	ldd	r18, Z+1	; 0x01
    3812:	30 e0       	ldi	r19, 0x00	; 0
    3814:	24 27       	eor	r18, r20
    3816:	35 27       	eor	r19, r21
    3818:	74 e0       	ldi	r23, 0x04	; 4
    381a:	95 95       	asr	r25
    381c:	87 95       	ror	r24
    381e:	7a 95       	dec	r23
    3820:	e1 f7       	brne	.-8      	; 0x381a <crc_accumulate+0x32>
    3822:	82 27       	eor	r24, r18
    3824:	93 27       	eor	r25, r19
    3826:	91 83       	std	Z+1, r25	; 0x01
    3828:	80 83       	st	Z, r24
    382a:	08 95       	ret

0000382c <_Z15mavlink_receiveh>:
    382c:	1f 93       	push	r17
    382e:	cf 93       	push	r28
    3830:	df 93       	push	r29
    3832:	cd b7       	in	r28, 0x3d	; 61
    3834:	de b7       	in	r29, 0x3e	; 62
    3836:	6f 97       	sbiw	r28, 0x1f	; 31
    3838:	0f b6       	in	r0, 0x3f	; 63
    383a:	f8 94       	cli
    383c:	de bf       	out	0x3e, r29	; 62
    383e:	0f be       	out	0x3f, r0	; 63
    3840:	cd bf       	out	0x3d, r28	; 61
    3842:	18 2f       	mov	r17, r24
    3844:	10 92 ab 02 	sts	0x02AB, r1	; 0x8002ab <_ZZ26mavlink_get_channel_statusE16m_mavlink_status>
    3848:	20 91 ae 02 	lds	r18, 0x02AE	; 0x8002ae <_ZZ26mavlink_get_channel_statusE16m_mavlink_status+0x3>
    384c:	82 2f       	mov	r24, r18
    384e:	90 e0       	ldi	r25, 0x00	; 0
    3850:	8b 30       	cpi	r24, 0x0B	; 11
    3852:	91 05       	cpc	r25, r1
    3854:	08 f0       	brcs	.+2      	; 0x3858 <_Z15mavlink_receiveh+0x2c>
    3856:	a5 c0       	rjmp	.+330    	; 0x39a2 <_Z15mavlink_receiveh+0x176>
    3858:	fc 01       	movw	r30, r24
    385a:	ec 5c       	subi	r30, 0xCC	; 204
    385c:	ff 4f       	sbci	r31, 0xFF	; 255
    385e:	0c 94 aa 26 	jmp	0x4d54	; 0x4d54 <__tablejump2__>
    3862:	1e 3f       	cpi	r17, 0xFE	; 254
    3864:	09 f0       	breq	.+2      	; 0x3868 <_Z15mavlink_receiveh+0x3c>
    3866:	9d c0       	rjmp	.+314    	; 0x39a2 <_Z15mavlink_receiveh+0x176>
    3868:	82 e0       	ldi	r24, 0x02	; 2
    386a:	80 93 ae 02 	sts	0x02AE, r24	; 0x8002ae <_ZZ26mavlink_get_channel_statusE16m_mavlink_status+0x3>
    386e:	10 92 b9 02 	sts	0x02B9, r1	; 0x8002b9 <_ZZ26mavlink_get_channel_bufferE16m_mavlink_buffer+0x3>
    3872:	10 93 b8 02 	sts	0x02B8, r17	; 0x8002b8 <_ZZ26mavlink_get_channel_bufferE16m_mavlink_buffer+0x2>
    3876:	8f ef       	ldi	r24, 0xFF	; 255
    3878:	9f ef       	ldi	r25, 0xFF	; 255
    387a:	90 93 b7 02 	sts	0x02B7, r25	; 0x8002b7 <_ZZ26mavlink_get_channel_bufferE16m_mavlink_buffer+0x1>
    387e:	80 93 b6 02 	sts	0x02B6, r24	; 0x8002b6 <_ZZ26mavlink_get_channel_bufferE16m_mavlink_buffer>
    3882:	8f c0       	rjmp	.+286    	; 0x39a2 <_Z15mavlink_receiveh+0x176>
    3884:	10 93 b9 02 	sts	0x02B9, r17	; 0x8002b9 <_ZZ26mavlink_get_channel_bufferE16m_mavlink_buffer+0x3>
    3888:	10 92 af 02 	sts	0x02AF, r1	; 0x8002af <_ZZ26mavlink_get_channel_statusE16m_mavlink_status+0x4>
    388c:	66 eb       	ldi	r22, 0xB6	; 182
    388e:	72 e0       	ldi	r23, 0x02	; 2
    3890:	81 2f       	mov	r24, r17
    3892:	0e 94 f4 1b 	call	0x37e8	; 0x37e8 <crc_accumulate>
    3896:	84 e0       	ldi	r24, 0x04	; 4
    3898:	29 c0       	rjmp	.+82     	; 0x38ec <_Z15mavlink_receiveh+0xc0>
    389a:	10 93 ba 02 	sts	0x02BA, r17	; 0x8002ba <_ZZ26mavlink_get_channel_bufferE16m_mavlink_buffer+0x4>
    389e:	66 eb       	ldi	r22, 0xB6	; 182
    38a0:	72 e0       	ldi	r23, 0x02	; 2
    38a2:	81 2f       	mov	r24, r17
    38a4:	0e 94 f4 1b 	call	0x37e8	; 0x37e8 <crc_accumulate>
    38a8:	83 e0       	ldi	r24, 0x03	; 3
    38aa:	20 c0       	rjmp	.+64     	; 0x38ec <_Z15mavlink_receiveh+0xc0>
    38ac:	10 93 bb 02 	sts	0x02BB, r17	; 0x8002bb <_ZZ26mavlink_get_channel_bufferE16m_mavlink_buffer+0x5>
    38b0:	66 eb       	ldi	r22, 0xB6	; 182
    38b2:	72 e0       	ldi	r23, 0x02	; 2
    38b4:	81 2f       	mov	r24, r17
    38b6:	0e 94 f4 1b 	call	0x37e8	; 0x37e8 <crc_accumulate>
    38ba:	85 e0       	ldi	r24, 0x05	; 5
    38bc:	17 c0       	rjmp	.+46     	; 0x38ec <_Z15mavlink_receiveh+0xc0>
    38be:	10 93 bc 02 	sts	0x02BC, r17	; 0x8002bc <_ZZ26mavlink_get_channel_bufferE16m_mavlink_buffer+0x6>
    38c2:	66 eb       	ldi	r22, 0xB6	; 182
    38c4:	72 e0       	ldi	r23, 0x02	; 2
    38c6:	81 2f       	mov	r24, r17
    38c8:	0e 94 f4 1b 	call	0x37e8	; 0x37e8 <crc_accumulate>
    38cc:	86 e0       	ldi	r24, 0x06	; 6
    38ce:	0e c0       	rjmp	.+28     	; 0x38ec <_Z15mavlink_receiveh+0xc0>
    38d0:	10 93 bd 02 	sts	0x02BD, r17	; 0x8002bd <_ZZ26mavlink_get_channel_bufferE16m_mavlink_buffer+0x7>
    38d4:	66 eb       	ldi	r22, 0xB6	; 182
    38d6:	72 e0       	ldi	r23, 0x02	; 2
    38d8:	81 2f       	mov	r24, r17
    38da:	0e 94 f4 1b 	call	0x37e8	; 0x37e8 <crc_accumulate>
    38de:	80 91 b9 02 	lds	r24, 0x02B9	; 0x8002b9 <_ZZ26mavlink_get_channel_bufferE16m_mavlink_buffer+0x3>
    38e2:	81 11       	cpse	r24, r1
    38e4:	02 c0       	rjmp	.+4      	; 0x38ea <_Z15mavlink_receiveh+0xbe>
    38e6:	88 e0       	ldi	r24, 0x08	; 8
    38e8:	01 c0       	rjmp	.+2      	; 0x38ec <_Z15mavlink_receiveh+0xc0>
    38ea:	87 e0       	ldi	r24, 0x07	; 7
    38ec:	80 93 ae 02 	sts	0x02AE, r24	; 0x8002ae <_ZZ26mavlink_get_channel_statusE16m_mavlink_status+0x3>
    38f0:	58 c0       	rjmp	.+176    	; 0x39a2 <_Z15mavlink_receiveh+0x176>
    38f2:	e0 91 af 02 	lds	r30, 0x02AF	; 0x8002af <_ZZ26mavlink_get_channel_statusE16m_mavlink_status+0x4>
    38f6:	81 e0       	ldi	r24, 0x01	; 1
    38f8:	8e 0f       	add	r24, r30
    38fa:	80 93 af 02 	sts	0x02AF, r24	; 0x8002af <_ZZ26mavlink_get_channel_statusE16m_mavlink_status+0x4>
    38fe:	f0 e0       	ldi	r31, 0x00	; 0
    3900:	e2 54       	subi	r30, 0x42	; 66
    3902:	fd 4f       	sbci	r31, 0xFD	; 253
    3904:	10 83       	st	Z, r17
    3906:	66 eb       	ldi	r22, 0xB6	; 182
    3908:	72 e0       	ldi	r23, 0x02	; 2
    390a:	81 2f       	mov	r24, r17
    390c:	0e 94 f4 1b 	call	0x37e8	; 0x37e8 <crc_accumulate>
    3910:	90 91 af 02 	lds	r25, 0x02AF	; 0x8002af <_ZZ26mavlink_get_channel_statusE16m_mavlink_status+0x4>
    3914:	80 91 b9 02 	lds	r24, 0x02B9	; 0x8002b9 <_ZZ26mavlink_get_channel_bufferE16m_mavlink_buffer+0x3>
    3918:	98 13       	cpse	r25, r24
    391a:	43 c0       	rjmp	.+134    	; 0x39a2 <_Z15mavlink_receiveh+0x176>
    391c:	e4 cf       	rjmp	.-56     	; 0x38e6 <_Z15mavlink_receiveh+0xba>
    391e:	e0 91 bd 02 	lds	r30, 0x02BD	; 0x8002bd <_ZZ26mavlink_get_channel_bufferE16m_mavlink_buffer+0x7>
    3922:	f0 e0       	ldi	r31, 0x00	; 0
    3924:	e8 5d       	subi	r30, 0xD8	; 216
    3926:	fe 4f       	sbci	r31, 0xFE	; 254
    3928:	66 eb       	ldi	r22, 0xB6	; 182
    392a:	72 e0       	ldi	r23, 0x02	; 2
    392c:	80 81       	ld	r24, Z
    392e:	0e 94 f4 1b 	call	0x37e8	; 0x37e8 <crc_accumulate>
    3932:	21 2f       	mov	r18, r17
    3934:	30 e0       	ldi	r19, 0x00	; 0
    3936:	80 91 b6 02 	lds	r24, 0x02B6	; 0x8002b6 <_ZZ26mavlink_get_channel_bufferE16m_mavlink_buffer>
    393a:	90 91 b7 02 	lds	r25, 0x02B7	; 0x8002b7 <_ZZ26mavlink_get_channel_bufferE16m_mavlink_buffer+0x1>
    393e:	99 27       	eor	r25, r25
    3940:	28 17       	cp	r18, r24
    3942:	39 07       	cpc	r19, r25
    3944:	11 f0       	breq	.+4      	; 0x394a <_Z15mavlink_receiveh+0x11e>
    3946:	8a e0       	ldi	r24, 0x0A	; 10
    3948:	01 c0       	rjmp	.+2      	; 0x394c <_Z15mavlink_receiveh+0x120>
    394a:	89 e0       	ldi	r24, 0x09	; 9
    394c:	80 93 ae 02 	sts	0x02AE, r24	; 0x8002ae <_ZZ26mavlink_get_channel_statusE16m_mavlink_status+0x3>
    3950:	e0 91 af 02 	lds	r30, 0x02AF	; 0x8002af <_ZZ26mavlink_get_channel_statusE16m_mavlink_status+0x4>
    3954:	f0 e0       	ldi	r31, 0x00	; 0
    3956:	e2 54       	subi	r30, 0x42	; 66
    3958:	fd 4f       	sbci	r31, 0xFD	; 253
    395a:	10 83       	st	Z, r17
    395c:	22 c0       	rjmp	.+68     	; 0x39a2 <_Z15mavlink_receiveh+0x176>
    395e:	2a 30       	cpi	r18, 0x0A	; 10
    3960:	41 f0       	breq	.+16     	; 0x3972 <_Z15mavlink_receiveh+0x146>
    3962:	21 2f       	mov	r18, r17
    3964:	30 e0       	ldi	r19, 0x00	; 0
    3966:	80 91 b7 02 	lds	r24, 0x02B7	; 0x8002b7 <_ZZ26mavlink_get_channel_bufferE16m_mavlink_buffer+0x1>
    396a:	90 e0       	ldi	r25, 0x00	; 0
    396c:	28 17       	cp	r18, r24
    396e:	39 07       	cpc	r19, r25
    3970:	11 f0       	breq	.+4      	; 0x3976 <_Z15mavlink_receiveh+0x14a>
    3972:	82 e0       	ldi	r24, 0x02	; 2
    3974:	01 c0       	rjmp	.+2      	; 0x3978 <_Z15mavlink_receiveh+0x14c>
    3976:	81 e0       	ldi	r24, 0x01	; 1
    3978:	80 93 ab 02 	sts	0x02AB, r24	; 0x8002ab <_ZZ26mavlink_get_channel_statusE16m_mavlink_status>
    397c:	81 e0       	ldi	r24, 0x01	; 1
    397e:	80 93 ae 02 	sts	0x02AE, r24	; 0x8002ae <_ZZ26mavlink_get_channel_statusE16m_mavlink_status+0x3>
    3982:	e0 91 af 02 	lds	r30, 0x02AF	; 0x8002af <_ZZ26mavlink_get_channel_statusE16m_mavlink_status+0x4>
    3986:	f0 e0       	ldi	r31, 0x00	; 0
    3988:	e1 54       	subi	r30, 0x41	; 65
    398a:	fd 4f       	sbci	r31, 0xFD	; 253
    398c:	10 83       	st	Z, r17
    398e:	80 e1       	ldi	r24, 0x10	; 16
    3990:	91 e0       	ldi	r25, 0x01	; 1
    3992:	e6 eb       	ldi	r30, 0xB6	; 182
    3994:	f2 e0       	ldi	r31, 0x02	; 2
    3996:	a1 e3       	ldi	r26, 0x31	; 49
    3998:	b4 e0       	ldi	r27, 0x04	; 4
    399a:	01 90       	ld	r0, Z+
    399c:	0d 92       	st	X+, r0
    399e:	01 97       	sbiw	r24, 0x01	; 1
    39a0:	e1 f7       	brne	.-8      	; 0x399a <_Z15mavlink_receiveh+0x16e>
    39a2:	40 91 ab 02 	lds	r20, 0x02AB	; 0x8002ab <_ZZ26mavlink_get_channel_statusE16m_mavlink_status>
    39a6:	41 30       	cpi	r20, 0x01	; 1
    39a8:	99 f4       	brne	.+38     	; 0x39d0 <_Z15mavlink_receiveh+0x1a4>
    39aa:	80 91 ba 02 	lds	r24, 0x02BA	; 0x8002ba <_ZZ26mavlink_get_channel_bufferE16m_mavlink_buffer+0x4>
    39ae:	80 93 b0 02 	sts	0x02B0, r24	; 0x8002b0 <_ZZ26mavlink_get_channel_statusE16m_mavlink_status+0x5>
    39b2:	80 91 b2 02 	lds	r24, 0x02B2	; 0x8002b2 <_ZZ26mavlink_get_channel_statusE16m_mavlink_status+0x7>
    39b6:	90 91 b3 02 	lds	r25, 0x02B3	; 0x8002b3 <_ZZ26mavlink_get_channel_statusE16m_mavlink_status+0x8>
    39ba:	00 97       	sbiw	r24, 0x00	; 0
    39bc:	21 f4       	brne	.+8      	; 0x39c6 <_Z15mavlink_receiveh+0x19a>
    39be:	10 92 b5 02 	sts	0x02B5, r1	; 0x8002b5 <_ZZ26mavlink_get_channel_statusE16m_mavlink_status+0xa>
    39c2:	10 92 b4 02 	sts	0x02B4, r1	; 0x8002b4 <_ZZ26mavlink_get_channel_statusE16m_mavlink_status+0x9>
    39c6:	01 96       	adiw	r24, 0x01	; 1
    39c8:	90 93 b3 02 	sts	0x02B3, r25	; 0x8002b3 <_ZZ26mavlink_get_channel_statusE16m_mavlink_status+0x8>
    39cc:	80 93 b2 02 	sts	0x02B2, r24	; 0x8002b2 <_ZZ26mavlink_get_channel_statusE16m_mavlink_status+0x7>
    39d0:	80 91 b9 02 	lds	r24, 0x02B9	; 0x8002b9 <_ZZ26mavlink_get_channel_bufferE16m_mavlink_buffer+0x3>
    39d4:	80 93 34 04 	sts	0x0434, r24	; 0x800434 <msg+0x3>
    39d8:	80 91 ae 02 	lds	r24, 0x02AE	; 0x8002ae <_ZZ26mavlink_get_channel_statusE16m_mavlink_status+0x3>
    39dc:	80 93 29 04 	sts	0x0429, r24	; 0x800429 <status+0x3>
    39e0:	20 91 af 02 	lds	r18, 0x02AF	; 0x8002af <_ZZ26mavlink_get_channel_statusE16m_mavlink_status+0x4>
    39e4:	20 93 2a 04 	sts	0x042A, r18	; 0x80042a <status+0x4>
    39e8:	80 91 b0 02 	lds	r24, 0x02B0	; 0x8002b0 <_ZZ26mavlink_get_channel_statusE16m_mavlink_status+0x5>
    39ec:	8f 5f       	subi	r24, 0xFF	; 255
    39ee:	80 93 2b 04 	sts	0x042B, r24	; 0x80042b <status+0x5>
    39f2:	80 91 b2 02 	lds	r24, 0x02B2	; 0x8002b2 <_ZZ26mavlink_get_channel_statusE16m_mavlink_status+0x7>
    39f6:	90 91 b3 02 	lds	r25, 0x02B3	; 0x8002b3 <_ZZ26mavlink_get_channel_statusE16m_mavlink_status+0x8>
    39fa:	90 93 2e 04 	sts	0x042E, r25	; 0x80042e <status+0x8>
    39fe:	80 93 2d 04 	sts	0x042D, r24	; 0x80042d <status+0x7>
    3a02:	80 91 ad 02 	lds	r24, 0x02AD	; 0x8002ad <_ZZ26mavlink_get_channel_statusE16m_mavlink_status+0x2>
    3a06:	90 e0       	ldi	r25, 0x00	; 0
    3a08:	90 93 30 04 	sts	0x0430, r25	; 0x800430 <status+0xa>
    3a0c:	80 93 2f 04 	sts	0x042F, r24	; 0x80042f <status+0x9>
    3a10:	10 92 ad 02 	sts	0x02AD, r1	; 0x8002ad <_ZZ26mavlink_get_channel_statusE16m_mavlink_status+0x2>
    3a14:	42 30       	cpi	r20, 0x02	; 2
    3a16:	31 f5       	brne	.+76     	; 0x3a64 <_Z15mavlink_receiveh+0x238>
    3a18:	30 e0       	ldi	r19, 0x00	; 0
    3a1a:	f9 01       	movw	r30, r18
    3a1c:	e1 54       	subi	r30, 0x41	; 65
    3a1e:	fd 4f       	sbci	r31, 0xFD	; 253
    3a20:	80 81       	ld	r24, Z
    3a22:	90 e0       	ldi	r25, 0x00	; 0
    3a24:	98 2f       	mov	r25, r24
    3a26:	88 27       	eor	r24, r24
    3a28:	f9 01       	movw	r30, r18
    3a2a:	e2 54       	subi	r30, 0x42	; 66
    3a2c:	fd 4f       	sbci	r31, 0xFD	; 253
    3a2e:	20 81       	ld	r18, Z
    3a30:	82 2b       	or	r24, r18
    3a32:	90 93 32 04 	sts	0x0432, r25	; 0x800432 <msg+0x1>
    3a36:	80 93 31 04 	sts	0x0431, r24	; 0x800431 <msg>
    3a3a:	81 e0       	ldi	r24, 0x01	; 1
    3a3c:	80 93 ad 02 	sts	0x02AD, r24	; 0x8002ad <_ZZ26mavlink_get_channel_statusE16m_mavlink_status+0x2>
    3a40:	10 92 ab 02 	sts	0x02AB, r1	; 0x8002ab <_ZZ26mavlink_get_channel_statusE16m_mavlink_status>
    3a44:	1e 3f       	cpi	r17, 0xFE	; 254
    3a46:	59 f4       	brne	.+22     	; 0x3a5e <_Z15mavlink_receiveh+0x232>
    3a48:	40 93 ae 02 	sts	0x02AE, r20	; 0x8002ae <_ZZ26mavlink_get_channel_statusE16m_mavlink_status+0x3>
    3a4c:	10 92 b9 02 	sts	0x02B9, r1	; 0x8002b9 <_ZZ26mavlink_get_channel_bufferE16m_mavlink_buffer+0x3>
    3a50:	8f ef       	ldi	r24, 0xFF	; 255
    3a52:	9f ef       	ldi	r25, 0xFF	; 255
    3a54:	90 93 b7 02 	sts	0x02B7, r25	; 0x8002b7 <_ZZ26mavlink_get_channel_bufferE16m_mavlink_buffer+0x1>
    3a58:	80 93 b6 02 	sts	0x02B6, r24	; 0x8002b6 <_ZZ26mavlink_get_channel_bufferE16m_mavlink_buffer>
    3a5c:	3b c1       	rjmp	.+630    	; 0x3cd4 <_Z15mavlink_receiveh+0x4a8>
    3a5e:	80 93 ae 02 	sts	0x02AE, r24	; 0x8002ae <_ZZ26mavlink_get_channel_statusE16m_mavlink_status+0x3>
    3a62:	38 c1       	rjmp	.+624    	; 0x3cd4 <_Z15mavlink_receiveh+0x4a8>
    3a64:	44 23       	and	r20, r20
    3a66:	09 f4       	brne	.+2      	; 0x3a6a <_Z15mavlink_receiveh+0x23e>
    3a68:	35 c1       	rjmp	.+618    	; 0x3cd4 <_Z15mavlink_receiveh+0x4a8>
    3a6a:	81 e4       	ldi	r24, 0x41	; 65
    3a6c:	95 e0       	ldi	r25, 0x05	; 5
    3a6e:	0e 94 d9 23 	call	0x47b2	; 0x47b2 <_ZN4Time6millisEv>
    3a72:	60 93 ca 03 	sts	0x03CA, r22	; 0x8003ca <last_mavlink_time>
    3a76:	70 93 cb 03 	sts	0x03CB, r23	; 0x8003cb <last_mavlink_time+0x1>
    3a7a:	80 93 cc 03 	sts	0x03CC, r24	; 0x8003cc <last_mavlink_time+0x2>
    3a7e:	90 93 cd 03 	sts	0x03CD, r25	; 0x8003cd <last_mavlink_time+0x3>
    3a82:	81 e0       	ldi	r24, 0x01	; 1
    3a84:	80 93 03 04 	sts	0x0403, r24	; 0x800403 <mavlinkStatus>
    3a88:	80 91 38 04 	lds	r24, 0x0438	; 0x800438 <msg+0x7>
    3a8c:	81 32       	cpi	r24, 0x21	; 33
    3a8e:	09 f4       	brne	.+2      	; 0x3a92 <_Z15mavlink_receiveh+0x266>
    3a90:	7f c0       	rjmp	.+254    	; 0x3b90 <_Z15mavlink_receiveh+0x364>
    3a92:	50 f4       	brcc	.+20     	; 0x3aa8 <_Z15mavlink_receiveh+0x27c>
    3a94:	81 30       	cpi	r24, 0x01	; 1
    3a96:	e1 f1       	breq	.+120    	; 0x3b10 <_Z15mavlink_receiveh+0x2e4>
    3a98:	08 f4       	brcc	.+2      	; 0x3a9c <_Z15mavlink_receiveh+0x270>
    3a9a:	1c c1       	rjmp	.+568    	; 0x3cd4 <_Z15mavlink_receiveh+0x4a8>
    3a9c:	88 31       	cpi	r24, 0x18	; 24
    3a9e:	09 f4       	brne	.+2      	; 0x3aa2 <_Z15mavlink_receiveh+0x276>
    3aa0:	c0 c0       	rjmp	.+384    	; 0x3c22 <_Z15mavlink_receiveh+0x3f6>
    3aa2:	8e 31       	cpi	r24, 0x1E	; 30
    3aa4:	59 f0       	breq	.+22     	; 0x3abc <_Z15mavlink_receiveh+0x290>
    3aa6:	16 c1       	rjmp	.+556    	; 0x3cd4 <_Z15mavlink_receiveh+0x4a8>
    3aa8:	8c 34       	cpi	r24, 0x4C	; 76
    3aaa:	08 f0       	brcs	.+2      	; 0x3aae <_Z15mavlink_receiveh+0x282>
    3aac:	13 c1       	rjmp	.+550    	; 0x3cd4 <_Z15mavlink_receiveh+0x4a8>
    3aae:	8a 34       	cpi	r24, 0x4A	; 74
    3ab0:	08 f0       	brcs	.+2      	; 0x3ab4 <_Z15mavlink_receiveh+0x288>
    3ab2:	10 c1       	rjmp	.+544    	; 0x3cd4 <_Z15mavlink_receiveh+0x4a8>
    3ab4:	83 32       	cpi	r24, 0x23	; 35
    3ab6:	09 f4       	brne	.+2      	; 0x3aba <_Z15mavlink_receiveh+0x28e>
    3ab8:	9f c0       	rjmp	.+318    	; 0x3bf8 <_Z15mavlink_receiveh+0x3cc>
    3aba:	0c c1       	rjmp	.+536    	; 0x3cd4 <_Z15mavlink_receiveh+0x4a8>
    3abc:	40 91 34 04 	lds	r20, 0x0434	; 0x800434 <msg+0x3>
    3ac0:	4d 31       	cpi	r20, 0x1D	; 29
    3ac2:	08 f0       	brcs	.+2      	; 0x3ac6 <_Z15mavlink_receiveh+0x29a>
    3ac4:	4c e1       	ldi	r20, 0x1C	; 28
    3ac6:	ce 01       	movw	r24, r28
    3ac8:	01 96       	adiw	r24, 0x01	; 1
    3aca:	2c e1       	ldi	r18, 0x1C	; 28
    3acc:	fc 01       	movw	r30, r24
    3ace:	11 92       	st	Z+, r1
    3ad0:	2a 95       	dec	r18
    3ad2:	e9 f7       	brne	.-6      	; 0x3ace <_Z15mavlink_receiveh+0x2a2>
    3ad4:	50 e0       	ldi	r21, 0x00	; 0
    3ad6:	69 e3       	ldi	r22, 0x39	; 57
    3ad8:	74 e0       	ldi	r23, 0x04	; 4
    3ada:	0e 94 f2 26 	call	0x4de4	; 0x4de4 <memcpy>
    3ade:	8d 81       	ldd	r24, Y+5	; 0x05
    3ae0:	9e 81       	ldd	r25, Y+6	; 0x06
    3ae2:	af 81       	ldd	r26, Y+7	; 0x07
    3ae4:	b8 85       	ldd	r27, Y+8	; 0x08
    3ae6:	80 93 10 04 	sts	0x0410, r24	; 0x800410 <roll>
    3aea:	90 93 11 04 	sts	0x0411, r25	; 0x800411 <roll+0x1>
    3aee:	a0 93 12 04 	sts	0x0412, r26	; 0x800412 <roll+0x2>
    3af2:	b0 93 13 04 	sts	0x0413, r27	; 0x800413 <roll+0x3>
    3af6:	89 85       	ldd	r24, Y+9	; 0x09
    3af8:	9a 85       	ldd	r25, Y+10	; 0x0a
    3afa:	ab 85       	ldd	r26, Y+11	; 0x0b
    3afc:	bc 85       	ldd	r27, Y+12	; 0x0c
    3afe:	80 93 0c 04 	sts	0x040C, r24	; 0x80040c <pitch>
    3b02:	90 93 0d 04 	sts	0x040D, r25	; 0x80040d <pitch+0x1>
    3b06:	a0 93 0e 04 	sts	0x040E, r26	; 0x80040e <pitch+0x2>
    3b0a:	b0 93 0f 04 	sts	0x040F, r27	; 0x80040f <pitch+0x3>
    3b0e:	e2 c0       	rjmp	.+452    	; 0x3cd4 <_Z15mavlink_receiveh+0x4a8>
    3b10:	40 91 34 04 	lds	r20, 0x0434	; 0x800434 <msg+0x3>
    3b14:	40 32       	cpi	r20, 0x20	; 32
    3b16:	08 f0       	brcs	.+2      	; 0x3b1a <_Z15mavlink_receiveh+0x2ee>
    3b18:	4f e1       	ldi	r20, 0x1F	; 31
    3b1a:	ce 01       	movw	r24, r28
    3b1c:	01 96       	adiw	r24, 0x01	; 1
    3b1e:	2f e1       	ldi	r18, 0x1F	; 31
    3b20:	fc 01       	movw	r30, r24
    3b22:	11 92       	st	Z+, r1
    3b24:	2a 95       	dec	r18
    3b26:	e9 f7       	brne	.-6      	; 0x3b22 <_Z15mavlink_receiveh+0x2f6>
    3b28:	50 e0       	ldi	r21, 0x00	; 0
    3b2a:	69 e3       	ldi	r22, 0x39	; 57
    3b2c:	74 e0       	ldi	r23, 0x04	; 4
    3b2e:	0e 94 f2 26 	call	0x4de4	; 0x4de4 <memcpy>
    3b32:	6f 85       	ldd	r22, Y+15	; 0x0f
    3b34:	78 89       	ldd	r23, Y+16	; 0x10
    3b36:	80 e0       	ldi	r24, 0x00	; 0
    3b38:	90 e0       	ldi	r25, 0x00	; 0
    3b3a:	0e 94 3f 25 	call	0x4a7e	; 0x4a7e <__floatunsisf>
    3b3e:	20 e0       	ldi	r18, 0x00	; 0
    3b40:	30 e0       	ldi	r19, 0x00	; 0
    3b42:	4a e7       	ldi	r20, 0x7A	; 122
    3b44:	54 e4       	ldi	r21, 0x44	; 68
    3b46:	0e 94 9e 24 	call	0x493c	; 0x493c <__divsf3>
    3b4a:	60 93 04 04 	sts	0x0404, r22	; 0x800404 <voltage>
    3b4e:	70 93 05 04 	sts	0x0405, r23	; 0x800405 <voltage+0x1>
    3b52:	80 93 06 04 	sts	0x0406, r24	; 0x800406 <voltage+0x2>
    3b56:	90 93 07 04 	sts	0x0407, r25	; 0x800407 <voltage+0x3>
    3b5a:	69 89       	ldd	r22, Y+17	; 0x11
    3b5c:	7a 89       	ldd	r23, Y+18	; 0x12
    3b5e:	16 16       	cp	r1, r22
    3b60:	17 06       	cpc	r1, r23
    3b62:	0c f0       	brlt	.+2      	; 0x3b66 <_Z15mavlink_receiveh+0x33a>
    3b64:	b7 c0       	rjmp	.+366    	; 0x3cd4 <_Z15mavlink_receiveh+0x4a8>
    3b66:	07 2e       	mov	r0, r23
    3b68:	00 0c       	add	r0, r0
    3b6a:	88 0b       	sbc	r24, r24
    3b6c:	99 0b       	sbc	r25, r25
    3b6e:	0e 94 41 25 	call	0x4a82	; 0x4a82 <__floatsisf>
    3b72:	20 e0       	ldi	r18, 0x00	; 0
    3b74:	30 e0       	ldi	r19, 0x00	; 0
    3b76:	48 ec       	ldi	r20, 0xC8	; 200
    3b78:	52 e4       	ldi	r21, 0x42	; 66
    3b7a:	0e 94 9e 24 	call	0x493c	; 0x493c <__divsf3>
    3b7e:	60 93 08 04 	sts	0x0408, r22	; 0x800408 <current>
    3b82:	70 93 09 04 	sts	0x0409, r23	; 0x800409 <current+0x1>
    3b86:	80 93 0a 04 	sts	0x040A, r24	; 0x80040a <current+0x2>
    3b8a:	90 93 0b 04 	sts	0x040B, r25	; 0x80040b <current+0x3>
    3b8e:	a2 c0       	rjmp	.+324    	; 0x3cd4 <_Z15mavlink_receiveh+0x4a8>
    3b90:	40 91 34 04 	lds	r20, 0x0434	; 0x800434 <msg+0x3>
    3b94:	4d 31       	cpi	r20, 0x1D	; 29
    3b96:	08 f0       	brcs	.+2      	; 0x3b9a <_Z15mavlink_receiveh+0x36e>
    3b98:	4c e1       	ldi	r20, 0x1C	; 28
    3b9a:	ce 01       	movw	r24, r28
    3b9c:	01 96       	adiw	r24, 0x01	; 1
    3b9e:	2c e1       	ldi	r18, 0x1C	; 28
    3ba0:	fc 01       	movw	r30, r24
    3ba2:	11 92       	st	Z+, r1
    3ba4:	2a 95       	dec	r18
    3ba6:	e9 f7       	brne	.-6      	; 0x3ba2 <_Z15mavlink_receiveh+0x376>
    3ba8:	50 e0       	ldi	r21, 0x00	; 0
    3baa:	69 e3       	ldi	r22, 0x39	; 57
    3bac:	74 e0       	ldi	r23, 0x04	; 4
    3bae:	0e 94 f2 26 	call	0x4de4	; 0x4de4 <memcpy>
    3bb2:	8b 8d       	ldd	r24, Y+27	; 0x1b
    3bb4:	9c 8d       	ldd	r25, Y+28	; 0x1c
    3bb6:	01 96       	adiw	r24, 0x01	; 1
    3bb8:	11 f4       	brne	.+4      	; 0x3bbe <_Z15mavlink_receiveh+0x392>
    3bba:	1c 8e       	std	Y+28, r1	; 0x1c
    3bbc:	1b 8e       	std	Y+27, r1	; 0x1b
    3bbe:	8b 8d       	ldd	r24, Y+27	; 0x1b
    3bc0:	9c 8d       	ldd	r25, Y+28	; 0x1c
    3bc2:	64 e6       	ldi	r22, 0x64	; 100
    3bc4:	70 e0       	ldi	r23, 0x00	; 0
    3bc6:	0e 94 63 26 	call	0x4cc6	; 0x4cc6 <__udivmodhi4>
    3bca:	70 93 1d 04 	sts	0x041D, r23	; 0x80041d <hdg+0x1>
    3bce:	60 93 1c 04 	sts	0x041C, r22	; 0x80041c <hdg>
    3bd2:	69 89       	ldd	r22, Y+17	; 0x11
    3bd4:	7a 89       	ldd	r23, Y+18	; 0x12
    3bd6:	8b 89       	ldd	r24, Y+19	; 0x13
    3bd8:	9c 89       	ldd	r25, Y+20	; 0x14
    3bda:	28 ee       	ldi	r18, 0xE8	; 232
    3bdc:	33 e0       	ldi	r19, 0x03	; 3
    3bde:	40 e0       	ldi	r20, 0x00	; 0
    3be0:	50 e0       	ldi	r21, 0x00	; 0
    3be2:	0e 94 8b 26 	call	0x4d16	; 0x4d16 <__divmodsi4>
    3be6:	20 93 18 04 	sts	0x0418, r18	; 0x800418 <alt>
    3bea:	30 93 19 04 	sts	0x0419, r19	; 0x800419 <alt+0x1>
    3bee:	40 93 1a 04 	sts	0x041A, r20	; 0x80041a <alt+0x2>
    3bf2:	50 93 1b 04 	sts	0x041B, r21	; 0x80041b <alt+0x3>
    3bf6:	6e c0       	rjmp	.+220    	; 0x3cd4 <_Z15mavlink_receiveh+0x4a8>
    3bf8:	40 91 34 04 	lds	r20, 0x0434	; 0x800434 <msg+0x3>
    3bfc:	47 31       	cpi	r20, 0x17	; 23
    3bfe:	08 f0       	brcs	.+2      	; 0x3c02 <_Z15mavlink_receiveh+0x3d6>
    3c00:	46 e1       	ldi	r20, 0x16	; 22
    3c02:	ce 01       	movw	r24, r28
    3c04:	01 96       	adiw	r24, 0x01	; 1
    3c06:	26 e1       	ldi	r18, 0x16	; 22
    3c08:	fc 01       	movw	r30, r24
    3c0a:	11 92       	st	Z+, r1
    3c0c:	2a 95       	dec	r18
    3c0e:	e9 f7       	brne	.-6      	; 0x3c0a <_Z15mavlink_receiveh+0x3de>
    3c10:	50 e0       	ldi	r21, 0x00	; 0
    3c12:	69 e3       	ldi	r22, 0x39	; 57
    3c14:	74 e0       	ldi	r23, 0x04	; 4
    3c16:	0e 94 f2 26 	call	0x4de4	; 0x4de4 <memcpy>
    3c1a:	8e 89       	ldd	r24, Y+22	; 0x16
    3c1c:	80 93 14 04 	sts	0x0414, r24	; 0x800414 <rssi>
    3c20:	59 c0       	rjmp	.+178    	; 0x3cd4 <_Z15mavlink_receiveh+0x4a8>
    3c22:	40 91 34 04 	lds	r20, 0x0434	; 0x800434 <msg+0x3>
    3c26:	4f 31       	cpi	r20, 0x1F	; 31
    3c28:	08 f0       	brcs	.+2      	; 0x3c2c <_Z15mavlink_receiveh+0x400>
    3c2a:	4e e1       	ldi	r20, 0x1E	; 30
    3c2c:	ce 01       	movw	r24, r28
    3c2e:	01 96       	adiw	r24, 0x01	; 1
    3c30:	2e e1       	ldi	r18, 0x1E	; 30
    3c32:	fc 01       	movw	r30, r24
    3c34:	11 92       	st	Z+, r1
    3c36:	2a 95       	dec	r18
    3c38:	e9 f7       	brne	.-6      	; 0x3c34 <_Z15mavlink_receiveh+0x408>
    3c3a:	50 e0       	ldi	r21, 0x00	; 0
    3c3c:	69 e3       	ldi	r22, 0x39	; 57
    3c3e:	74 e0       	ldi	r23, 0x04	; 4
    3c40:	0e 94 f2 26 	call	0x4de4	; 0x4de4 <memcpy>
    3c44:	89 8d       	ldd	r24, Y+25	; 0x19
    3c46:	9a 8d       	ldd	r25, Y+26	; 0x1a
    3c48:	01 96       	adiw	r24, 0x01	; 1
    3c4a:	11 f4       	brne	.+4      	; 0x3c50 <_Z15mavlink_receiveh+0x424>
    3c4c:	1a 8e       	std	Y+26, r1	; 0x1a
    3c4e:	19 8e       	std	Y+25, r1	; 0x19
    3c50:	69 85       	ldd	r22, Y+9	; 0x09
    3c52:	7a 85       	ldd	r23, Y+10	; 0x0a
    3c54:	8b 85       	ldd	r24, Y+11	; 0x0b
    3c56:	9c 85       	ldd	r25, Y+12	; 0x0c
    3c58:	0e 94 41 25 	call	0x4a82	; 0x4a82 <__floatsisf>
    3c5c:	20 e8       	ldi	r18, 0x80	; 128
    3c5e:	36 e9       	ldi	r19, 0x96	; 150
    3c60:	48 e1       	ldi	r20, 0x18	; 24
    3c62:	5b e4       	ldi	r21, 0x4B	; 75
    3c64:	0e 94 9e 24 	call	0x493c	; 0x493c <__divsf3>
    3c68:	60 93 22 04 	sts	0x0422, r22	; 0x800422 <latitude>
    3c6c:	70 93 23 04 	sts	0x0423, r23	; 0x800423 <latitude+0x1>
    3c70:	80 93 24 04 	sts	0x0424, r24	; 0x800424 <latitude+0x2>
    3c74:	90 93 25 04 	sts	0x0425, r25	; 0x800425 <latitude+0x3>
    3c78:	6d 85       	ldd	r22, Y+13	; 0x0d
    3c7a:	7e 85       	ldd	r23, Y+14	; 0x0e
    3c7c:	8f 85       	ldd	r24, Y+15	; 0x0f
    3c7e:	98 89       	ldd	r25, Y+16	; 0x10
    3c80:	0e 94 41 25 	call	0x4a82	; 0x4a82 <__floatsisf>
    3c84:	20 e8       	ldi	r18, 0x80	; 128
    3c86:	36 e9       	ldi	r19, 0x96	; 150
    3c88:	48 e1       	ldi	r20, 0x18	; 24
    3c8a:	5b e4       	ldi	r21, 0x4B	; 75
    3c8c:	0e 94 9e 24 	call	0x493c	; 0x493c <__divsf3>
    3c90:	60 93 1e 04 	sts	0x041E, r22	; 0x80041e <longitude>
    3c94:	70 93 1f 04 	sts	0x041F, r23	; 0x80041f <longitude+0x1>
    3c98:	80 93 20 04 	sts	0x0420, r24	; 0x800420 <longitude+0x2>
    3c9c:	90 93 21 04 	sts	0x0421, r25	; 0x800421 <longitude+0x3>
    3ca0:	8d 8d       	ldd	r24, Y+29	; 0x1d
    3ca2:	80 93 15 04 	sts	0x0415, r24	; 0x800415 <fix_type>
    3ca6:	8e 8d       	ldd	r24, Y+30	; 0x1e
    3ca8:	80 93 16 04 	sts	0x0416, r24	; 0x800416 <satellites_visible>
    3cac:	89 8d       	ldd	r24, Y+25	; 0x19
    3cae:	9a 8d       	ldd	r25, Y+26	; 0x1a
    3cb0:	64 e6       	ldi	r22, 0x64	; 100
    3cb2:	70 e0       	ldi	r23, 0x00	; 0
    3cb4:	0e 94 63 26 	call	0x4cc6	; 0x4cc6 <__udivmodhi4>
    3cb8:	80 e0       	ldi	r24, 0x00	; 0
    3cba:	90 e0       	ldi	r25, 0x00	; 0
    3cbc:	0e 94 3f 25 	call	0x4a7e	; 0x4a7e <__floatunsisf>
    3cc0:	26 e6       	ldi	r18, 0x66	; 102
    3cc2:	36 e6       	ldi	r19, 0x66	; 102
    3cc4:	46 e6       	ldi	r20, 0x66	; 102
    3cc6:	50 e4       	ldi	r21, 0x40	; 64
    3cc8:	0e 94 f6 25 	call	0x4bec	; 0x4bec <__mulsf3>
    3ccc:	0e 94 10 25 	call	0x4a20	; 0x4a20 <__fixunssfsi>
    3cd0:	60 93 17 04 	sts	0x0417, r22	; 0x800417 <speed>
    3cd4:	6f 96       	adiw	r28, 0x1f	; 31
    3cd6:	0f b6       	in	r0, 0x3f	; 63
    3cd8:	f8 94       	cli
    3cda:	de bf       	out	0x3e, r29	; 62
    3cdc:	0f be       	out	0x3f, r0	; 63
    3cde:	cd bf       	out	0x3d, r28	; 61
    3ce0:	df 91       	pop	r29
    3ce2:	cf 91       	pop	r28
    3ce4:	1f 91       	pop	r17
    3ce6:	08 95       	ret

00003ce8 <_Z8init_ADCv>:
    3ce8:	80 e4       	ldi	r24, 0x40	; 64
    3cea:	80 93 7c 00 	sts	0x007C, r24	; 0x80007c <__TEXT_REGION_LENGTH__+0x7e007c>
    3cee:	87 e8       	ldi	r24, 0x87	; 135
    3cf0:	80 93 7a 00 	sts	0x007A, r24	; 0x80007a <__TEXT_REGION_LENGTH__+0x7e007a>
    3cf4:	08 95       	ret

00003cf6 <_Z13init_hardwarev>:
    3cf6:	0e 94 74 1e 	call	0x3ce8	; 0x3ce8 <_Z8init_ADCv>
    3cfa:	52 9a       	sbi	0x0a, 2	; 10
    3cfc:	53 9a       	sbi	0x0a, 3	; 10
    3cfe:	25 9a       	sbi	0x04, 5	; 4
    3d00:	2d 9a       	sbi	0x05, 5	; 5
    3d02:	54 98       	cbi	0x0a, 4	; 10
    3d04:	81 e4       	ldi	r24, 0x41	; 65
    3d06:	95 e0       	ldi	r25, 0x05	; 5
    3d08:	0e 94 c5 23 	call	0x478a	; 0x478a <_ZN4Time4initEv>
    3d0c:	8b e4       	ldi	r24, 0x4B	; 75
    3d0e:	95 e0       	ldi	r25, 0x05	; 5
    3d10:	0e 94 81 1b 	call	0x3702	; 0x3702 <_ZN4UART4initEv>
    3d14:	46 e1       	ldi	r20, 0x16	; 22
    3d16:	5c e1       	ldi	r21, 0x1C	; 28
    3d18:	60 e0       	ldi	r22, 0x00	; 0
    3d1a:	8b e4       	ldi	r24, 0x4B	; 75
    3d1c:	95 e0       	ldi	r25, 0x05	; 5
    3d1e:	0e 94 93 1b 	call	0x3726	; 0x3726 <_ZN4UART3addEhPFvhE>
    3d22:	40 e1       	ldi	r20, 0x10	; 16
    3d24:	60 e0       	ldi	r22, 0x00	; 0
    3d26:	71 e0       	ldi	r23, 0x01	; 1
    3d28:	81 e5       	ldi	r24, 0x51	; 81
    3d2a:	95 e0       	ldi	r25, 0x05	; 5
    3d2c:	0e 94 73 19 	call	0x32e6	; 0x32e6 <u8g_InitI2C>
    3d30:	78 94       	sei
    3d32:	08 95       	ret

00003d34 <_Z5delayi>:
    3d34:	18 16       	cp	r1, r24
    3d36:	19 06       	cpc	r1, r25
    3d38:	44 f4       	brge	.+16     	; 0x3d4a <_Z5delayi+0x16>
    3d3a:	ef e9       	ldi	r30, 0x9F	; 159
    3d3c:	ff e0       	ldi	r31, 0x0F	; 15
    3d3e:	31 97       	sbiw	r30, 0x01	; 1
    3d40:	f1 f7       	brne	.-4      	; 0x3d3e <_Z5delayi+0xa>
    3d42:	00 c0       	rjmp	.+0      	; 0x3d44 <_Z5delayi+0x10>
    3d44:	00 00       	nop
    3d46:	01 97       	sbiw	r24, 0x01	; 1
    3d48:	f5 cf       	rjmp	.-22     	; 0x3d34 <_Z5delayi>
    3d4a:	08 95       	ret

00003d4c <_Z4beepj>:
    3d4c:	5b 9a       	sbi	0x0b, 3	; 11
    3d4e:	0e 94 9a 1e 	call	0x3d34	; 0x3d34 <_Z5delayi>
    3d52:	5b 98       	cbi	0x0b, 3	; 11
    3d54:	08 95       	ret

00003d56 <_Z14startRadiationv>:
    3d56:	81 e0       	ldi	r24, 0x01	; 1
    3d58:	80 93 d2 03 	sts	0x03D2, r24	; 0x8003d2 <unblock>
    3d5c:	88 ee       	ldi	r24, 0xE8	; 232
    3d5e:	93 e0       	ldi	r25, 0x03	; 3
    3d60:	0e 94 a6 1e 	call	0x3d4c	; 0x3d4c <_Z4beepj>
    3d64:	2d 98       	cbi	0x05, 5	; 5
    3d66:	5a 9a       	sbi	0x0b, 2	; 11
    3d68:	08 95       	ret

00003d6a <_Z10analogReadi>:
    3d6a:	90 91 7c 00 	lds	r25, 0x007C	; 0x80007c <__TEXT_REGION_LENGTH__+0x7e007c>
    3d6e:	98 7f       	andi	r25, 0xF8	; 248
    3d70:	89 2b       	or	r24, r25
    3d72:	80 93 7c 00 	sts	0x007C, r24	; 0x80007c <__TEXT_REGION_LENGTH__+0x7e007c>
    3d76:	80 91 7a 00 	lds	r24, 0x007A	; 0x80007a <__TEXT_REGION_LENGTH__+0x7e007a>
    3d7a:	80 64       	ori	r24, 0x40	; 64
    3d7c:	80 93 7a 00 	sts	0x007A, r24	; 0x80007a <__TEXT_REGION_LENGTH__+0x7e007a>
    3d80:	80 91 7a 00 	lds	r24, 0x007A	; 0x80007a <__TEXT_REGION_LENGTH__+0x7e007a>
    3d84:	86 fd       	sbrc	r24, 6
    3d86:	fc cf       	rjmp	.-8      	; 0x3d80 <_Z10analogReadi+0x16>
    3d88:	80 91 78 00 	lds	r24, 0x0078	; 0x800078 <__TEXT_REGION_LENGTH__+0x7e0078>
    3d8c:	90 91 79 00 	lds	r25, 0x0079	; 0x800079 <__TEXT_REGION_LENGTH__+0x7e0079>
    3d90:	08 95       	ret

00003d92 <_Z15getInputVoltagev>:
    3d92:	cf 92       	push	r12
    3d94:	df 92       	push	r13
    3d96:	ef 92       	push	r14
    3d98:	ff 92       	push	r15
    3d9a:	cf 93       	push	r28
    3d9c:	df 93       	push	r29
    3d9e:	ca e0       	ldi	r28, 0x0A	; 10
    3da0:	d0 e0       	ldi	r29, 0x00	; 0
    3da2:	c1 2c       	mov	r12, r1
    3da4:	d1 2c       	mov	r13, r1
    3da6:	76 01       	movw	r14, r12
    3da8:	83 e0       	ldi	r24, 0x03	; 3
    3daa:	90 e0       	ldi	r25, 0x00	; 0
    3dac:	0e 94 b5 1e 	call	0x3d6a	; 0x3d6a <_Z10analogReadi>
    3db0:	bc 01       	movw	r22, r24
    3db2:	80 e0       	ldi	r24, 0x00	; 0
    3db4:	90 e0       	ldi	r25, 0x00	; 0
    3db6:	0e 94 3f 25 	call	0x4a7e	; 0x4a7e <__floatunsisf>
    3dba:	21 e7       	ldi	r18, 0x71	; 113
    3dbc:	3d e3       	ldi	r19, 0x3D	; 61
    3dbe:	42 e9       	ldi	r20, 0x92	; 146
    3dc0:	50 e4       	ldi	r21, 0x40	; 64
    3dc2:	0e 94 f6 25 	call	0x4bec	; 0x4bec <__mulsf3>
    3dc6:	20 e0       	ldi	r18, 0x00	; 0
    3dc8:	30 e0       	ldi	r19, 0x00	; 0
    3dca:	40 e8       	ldi	r20, 0x80	; 128
    3dcc:	5a e3       	ldi	r21, 0x3A	; 58
    3dce:	0e 94 f6 25 	call	0x4bec	; 0x4bec <__mulsf3>
    3dd2:	27 e0       	ldi	r18, 0x07	; 7
    3dd4:	39 e6       	ldi	r19, 0x69	; 105
    3dd6:	40 e9       	ldi	r20, 0x90	; 144
    3dd8:	5e e3       	ldi	r21, 0x3E	; 62
    3dda:	0e 94 9e 24 	call	0x493c	; 0x493c <__divsf3>
    3dde:	9b 01       	movw	r18, r22
    3de0:	ac 01       	movw	r20, r24
    3de2:	c7 01       	movw	r24, r14
    3de4:	b6 01       	movw	r22, r12
    3de6:	0e 94 2d 24 	call	0x485a	; 0x485a <__addsf3>
    3dea:	6b 01       	movw	r12, r22
    3dec:	7c 01       	movw	r14, r24
    3dee:	21 97       	sbiw	r28, 0x01	; 1
    3df0:	d9 f6       	brne	.-74     	; 0x3da8 <_Z15getInputVoltagev+0x16>
    3df2:	20 e0       	ldi	r18, 0x00	; 0
    3df4:	30 e0       	ldi	r19, 0x00	; 0
    3df6:	40 e2       	ldi	r20, 0x20	; 32
    3df8:	51 e4       	ldi	r21, 0x41	; 65
    3dfa:	0e 94 9e 24 	call	0x493c	; 0x493c <__divsf3>
    3dfe:	df 91       	pop	r29
    3e00:	cf 91       	pop	r28
    3e02:	ff 90       	pop	r15
    3e04:	ef 90       	pop	r14
    3e06:	df 90       	pop	r13
    3e08:	cf 90       	pop	r12
    3e0a:	08 95       	ret

00003e0c <_Z12getCellCountv>:
    3e0c:	0e 94 c9 1e 	call	0x3d92	; 0x3d92 <_Z15getInputVoltagev>
    3e10:	20 e0       	ldi	r18, 0x00	; 0
    3e12:	30 e0       	ldi	r19, 0x00	; 0
    3e14:	40 e0       	ldi	r20, 0x00	; 0
    3e16:	5f e3       	ldi	r21, 0x3F	; 63
    3e18:	0e 94 2d 24 	call	0x485a	; 0x485a <__addsf3>
    3e1c:	20 e0       	ldi	r18, 0x00	; 0
    3e1e:	30 e0       	ldi	r19, 0x00	; 0
    3e20:	40 e6       	ldi	r20, 0x60	; 96
    3e22:	50 e4       	ldi	r21, 0x40	; 64
    3e24:	0e 94 9e 24 	call	0x493c	; 0x493c <__divsf3>
    3e28:	0e 94 10 25 	call	0x4a20	; 0x4a20 <__fixunssfsi>
    3e2c:	86 2f       	mov	r24, r22
    3e2e:	08 95       	ret

00003e30 <_Z16saveLastPositionv>:
    3e30:	20 e0       	ldi	r18, 0x00	; 0
    3e32:	30 e0       	ldi	r19, 0x00	; 0
    3e34:	a9 01       	movw	r20, r18
    3e36:	60 91 22 04 	lds	r22, 0x0422	; 0x800422 <latitude>
    3e3a:	70 91 23 04 	lds	r23, 0x0423	; 0x800423 <latitude+0x1>
    3e3e:	80 91 24 04 	lds	r24, 0x0424	; 0x800424 <latitude+0x2>
    3e42:	90 91 25 04 	lds	r25, 0x0425	; 0x800425 <latitude+0x3>
    3e46:	0e 94 f1 25 	call	0x4be2	; 0x4be2 <__gesf2>
    3e4a:	18 16       	cp	r1, r24
    3e4c:	6c f5       	brge	.+90     	; 0x3ea8 <_Z16saveLastPositionv+0x78>
    3e4e:	20 e0       	ldi	r18, 0x00	; 0
    3e50:	30 e0       	ldi	r19, 0x00	; 0
    3e52:	a9 01       	movw	r20, r18
    3e54:	60 91 1e 04 	lds	r22, 0x041E	; 0x80041e <longitude>
    3e58:	70 91 1f 04 	lds	r23, 0x041F	; 0x80041f <longitude+0x1>
    3e5c:	80 91 20 04 	lds	r24, 0x0420	; 0x800420 <longitude+0x2>
    3e60:	90 91 21 04 	lds	r25, 0x0421	; 0x800421 <longitude+0x3>
    3e64:	0e 94 f1 25 	call	0x4be2	; 0x4be2 <__gesf2>
    3e68:	18 16       	cp	r1, r24
    3e6a:	f4 f4       	brge	.+60     	; 0x3ea8 <_Z16saveLastPositionv+0x78>
    3e6c:	20 e0       	ldi	r18, 0x00	; 0
    3e6e:	30 e0       	ldi	r19, 0x00	; 0
    3e70:	44 e0       	ldi	r20, 0x04	; 4
    3e72:	50 e0       	ldi	r21, 0x00	; 0
    3e74:	62 e2       	ldi	r22, 0x22	; 34
    3e76:	74 e0       	ldi	r23, 0x04	; 4
    3e78:	8a e4       	ldi	r24, 0x4A	; 74
    3e7a:	95 e0       	ldi	r25, 0x05	; 5
    3e7c:	0e 94 29 13 	call	0x2652	; 0x2652 <_ZN6EEPROM4saveEPhjj>
    3e80:	24 e0       	ldi	r18, 0x04	; 4
    3e82:	30 e0       	ldi	r19, 0x00	; 0
    3e84:	44 e0       	ldi	r20, 0x04	; 4
    3e86:	50 e0       	ldi	r21, 0x00	; 0
    3e88:	6e e1       	ldi	r22, 0x1E	; 30
    3e8a:	74 e0       	ldi	r23, 0x04	; 4
    3e8c:	8a e4       	ldi	r24, 0x4A	; 74
    3e8e:	95 e0       	ldi	r25, 0x05	; 5
    3e90:	0e 94 29 13 	call	0x2652	; 0x2652 <_ZN6EEPROM4saveEPhjj>
    3e94:	28 e0       	ldi	r18, 0x08	; 8
    3e96:	30 e0       	ldi	r19, 0x00	; 0
    3e98:	42 e0       	ldi	r20, 0x02	; 2
    3e9a:	50 e0       	ldi	r21, 0x00	; 0
    3e9c:	6c e1       	ldi	r22, 0x1C	; 28
    3e9e:	74 e0       	ldi	r23, 0x04	; 4
    3ea0:	8a e4       	ldi	r24, 0x4A	; 74
    3ea2:	95 e0       	ldi	r25, 0x05	; 5
    3ea4:	0c 94 29 13 	jmp	0x2652	; 0x2652 <_ZN6EEPROM4saveEPhjj>
    3ea8:	08 95       	ret

00003eaa <_Z16loadLastPositionv>:
    3eaa:	60 e0       	ldi	r22, 0x00	; 0
    3eac:	70 e0       	ldi	r23, 0x00	; 0
    3eae:	8a e4       	ldi	r24, 0x4A	; 74
    3eb0:	95 e0       	ldi	r25, 0x05	; 5
    3eb2:	0e 94 d5 12 	call	0x25aa	; 0x25aa <_ZN6EEPROM9readFloatEj>
    3eb6:	60 93 22 04 	sts	0x0422, r22	; 0x800422 <latitude>
    3eba:	70 93 23 04 	sts	0x0423, r23	; 0x800423 <latitude+0x1>
    3ebe:	80 93 24 04 	sts	0x0424, r24	; 0x800424 <latitude+0x2>
    3ec2:	90 93 25 04 	sts	0x0425, r25	; 0x800425 <latitude+0x3>
    3ec6:	64 e0       	ldi	r22, 0x04	; 4
    3ec8:	70 e0       	ldi	r23, 0x00	; 0
    3eca:	8a e4       	ldi	r24, 0x4A	; 74
    3ecc:	95 e0       	ldi	r25, 0x05	; 5
    3ece:	0e 94 d5 12 	call	0x25aa	; 0x25aa <_ZN6EEPROM9readFloatEj>
    3ed2:	60 93 1e 04 	sts	0x041E, r22	; 0x80041e <longitude>
    3ed6:	70 93 1f 04 	sts	0x041F, r23	; 0x80041f <longitude+0x1>
    3eda:	80 93 20 04 	sts	0x0420, r24	; 0x800420 <longitude+0x2>
    3ede:	90 93 21 04 	sts	0x0421, r25	; 0x800421 <longitude+0x3>
    3ee2:	68 e0       	ldi	r22, 0x08	; 8
    3ee4:	70 e0       	ldi	r23, 0x00	; 0
    3ee6:	8a e4       	ldi	r24, 0x4A	; 74
    3ee8:	95 e0       	ldi	r25, 0x05	; 5
    3eea:	0e 94 09 13 	call	0x2612	; 0x2612 <_ZN6EEPROM9readInt16Ej>
    3eee:	90 93 1d 04 	sts	0x041D, r25	; 0x80041d <hdg+0x1>
    3ef2:	80 93 1c 04 	sts	0x041C, r24	; 0x80041c <hdg>
    3ef6:	08 95       	ret

00003ef8 <_Z14showLockScreenv>:
    3ef8:	ef 92       	push	r14
    3efa:	ff 92       	push	r15
    3efc:	0f 93       	push	r16
    3efe:	1f 93       	push	r17
    3f00:	cf 93       	push	r28
    3f02:	df 93       	push	r29
    3f04:	81 e5       	ldi	r24, 0x51	; 81
    3f06:	95 e0       	ldi	r25, 0x05	; 5
    3f08:	0e 94 90 19 	call	0x3320	; 0x3320 <u8g_FirstPage>
    3f0c:	81 e7       	ldi	r24, 0x71	; 113
    3f0e:	e8 2e       	mov	r14, r24
    3f10:	8b e1       	ldi	r24, 0x1B	; 27
    3f12:	f8 2e       	mov	r15, r24
    3f14:	c3 ee       	ldi	r28, 0xE3	; 227
    3f16:	d3 e0       	ldi	r29, 0x03	; 3
    3f18:	6d e1       	ldi	r22, 0x1D	; 29
    3f1a:	7c e1       	ldi	r23, 0x1C	; 28
    3f1c:	81 e5       	ldi	r24, 0x51	; 81
    3f1e:	95 e0       	ldi	r25, 0x05	; 5
    3f20:	0e 94 50 18 	call	0x30a0	; 0x30a0 <u8g_SetFont>
    3f24:	29 ef       	ldi	r18, 0xF9	; 249
    3f26:	3b e1       	ldi	r19, 0x1B	; 27
    3f28:	4c e0       	ldi	r20, 0x0C	; 12
    3f2a:	60 e0       	ldi	r22, 0x00	; 0
    3f2c:	81 e5       	ldi	r24, 0x51	; 81
    3f2e:	95 e0       	ldi	r25, 0x05	; 5
    3f30:	0e 94 d7 17 	call	0x2fae	; 0x2fae <u8g_DrawStrP>
    3f34:	20 ed       	ldi	r18, 0xD0	; 208
    3f36:	3b e1       	ldi	r19, 0x1B	; 27
    3f38:	4c e1       	ldi	r20, 0x1C	; 28
    3f3a:	60 e0       	ldi	r22, 0x00	; 0
    3f3c:	81 e5       	ldi	r24, 0x51	; 81
    3f3e:	95 e0       	ldi	r25, 0x05	; 5
    3f40:	0e 94 d7 17 	call	0x2fae	; 0x2fae <u8g_DrawStrP>
    3f44:	2b ea       	ldi	r18, 0xAB	; 171
    3f46:	3b e1       	ldi	r19, 0x1B	; 27
    3f48:	44 e2       	ldi	r20, 0x24	; 36
    3f4a:	60 e0       	ldi	r22, 0x00	; 0
    3f4c:	81 e5       	ldi	r24, 0x51	; 81
    3f4e:	95 e0       	ldi	r25, 0x05	; 5
    3f50:	0e 94 d7 17 	call	0x2fae	; 0x2fae <u8g_DrawStrP>
    3f54:	24 e8       	ldi	r18, 0x84	; 132
    3f56:	3b e1       	ldi	r19, 0x1B	; 27
    3f58:	4c e2       	ldi	r20, 0x2C	; 44
    3f5a:	60 e0       	ldi	r22, 0x00	; 0
    3f5c:	81 e5       	ldi	r24, 0x51	; 81
    3f5e:	95 e0       	ldi	r25, 0x05	; 5
    3f60:	0e 94 d7 17 	call	0x2fae	; 0x2fae <u8g_DrawStrP>
    3f64:	0e 94 c9 1e 	call	0x3d92	; 0x3d92 <_Z15getInputVoltagev>
    3f68:	03 ed       	ldi	r16, 0xD3	; 211
    3f6a:	13 e0       	ldi	r17, 0x03	; 3
    3f6c:	21 e0       	ldi	r18, 0x01	; 1
    3f6e:	43 e0       	ldi	r20, 0x03	; 3
    3f70:	0e 94 d2 26 	call	0x4da4	; 0x4da4 <dtostrf>
    3f74:	c8 01       	movw	r24, r16
    3f76:	9f 93       	push	r25
    3f78:	0f 93       	push	r16
    3f7a:	ff 92       	push	r15
    3f7c:	ef 92       	push	r14
    3f7e:	df 93       	push	r29
    3f80:	cf 93       	push	r28
    3f82:	0e 94 fb 26 	call	0x4df6	; 0x4df6 <sprintf_P>
    3f86:	23 ee       	ldi	r18, 0xE3	; 227
    3f88:	33 e0       	ldi	r19, 0x03	; 3
    3f8a:	4c e3       	ldi	r20, 0x3C	; 60
    3f8c:	60 e0       	ldi	r22, 0x00	; 0
    3f8e:	81 e5       	ldi	r24, 0x51	; 81
    3f90:	95 e0       	ldi	r25, 0x05	; 5
    3f92:	0e 94 a0 17 	call	0x2f40	; 0x2f40 <u8g_DrawStr>
    3f96:	81 e5       	ldi	r24, 0x51	; 81
    3f98:	95 e0       	ldi	r25, 0x05	; 5
    3f9a:	0e 94 95 19 	call	0x332a	; 0x332a <u8g_NextPage>
    3f9e:	0f 90       	pop	r0
    3fa0:	0f 90       	pop	r0
    3fa2:	0f 90       	pop	r0
    3fa4:	0f 90       	pop	r0
    3fa6:	0f 90       	pop	r0
    3fa8:	0f 90       	pop	r0
    3faa:	81 11       	cpse	r24, r1
    3fac:	b5 cf       	rjmp	.-150    	; 0x3f18 <_Z14showLockScreenv+0x20>
    3fae:	4c 9b       	sbis	0x09, 4	; 9
    3fb0:	26 c0       	rjmp	.+76     	; 0x3ffe <_Z14showLockScreenv+0x106>
    3fb2:	81 e4       	ldi	r24, 0x41	; 65
    3fb4:	95 e0       	ldi	r25, 0x05	; 5
    3fb6:	0e 94 d9 23 	call	0x47b2	; 0x47b2 <_ZN4Time6millisEv>
    3fba:	60 93 ce 03 	sts	0x03CE, r22	; 0x8003ce <safety_button_pressed_time>
    3fbe:	70 93 cf 03 	sts	0x03CF, r23	; 0x8003cf <safety_button_pressed_time+0x1>
    3fc2:	80 93 d0 03 	sts	0x03D0, r24	; 0x8003d0 <safety_button_pressed_time+0x2>
    3fc6:	90 93 d1 03 	sts	0x03D1, r25	; 0x8003d1 <safety_button_pressed_time+0x3>
    3fca:	81 e4       	ldi	r24, 0x41	; 65
    3fcc:	95 e0       	ldi	r25, 0x05	; 5
    3fce:	0e 94 d9 23 	call	0x47b2	; 0x47b2 <_ZN4Time6millisEv>
    3fd2:	00 91 ce 03 	lds	r16, 0x03CE	; 0x8003ce <safety_button_pressed_time>
    3fd6:	10 91 cf 03 	lds	r17, 0x03CF	; 0x8003cf <safety_button_pressed_time+0x1>
    3fda:	20 91 d0 03 	lds	r18, 0x03D0	; 0x8003d0 <safety_button_pressed_time+0x2>
    3fde:	30 91 d1 03 	lds	r19, 0x03D1	; 0x8003d1 <safety_button_pressed_time+0x3>
    3fe2:	dc 01       	movw	r26, r24
    3fe4:	cb 01       	movw	r24, r22
    3fe6:	80 1b       	sub	r24, r16
    3fe8:	91 0b       	sbc	r25, r17
    3fea:	a2 0b       	sbc	r26, r18
    3fec:	b3 0b       	sbc	r27, r19
    3fee:	88 3b       	cpi	r24, 0xB8	; 184
    3ff0:	9b 40       	sbci	r25, 0x0B	; 11
    3ff2:	a1 05       	cpc	r26, r1
    3ff4:	b1 05       	cpc	r27, r1
    3ff6:	60 f4       	brcc	.+24     	; 0x4010 <_Z14showLockScreenv+0x118>
    3ff8:	4c 99       	sbic	0x09, 4	; 9
    3ffa:	e7 cf       	rjmp	.-50     	; 0x3fca <_Z14showLockScreenv+0xd2>
    3ffc:	09 c0       	rjmp	.+18     	; 0x4010 <_Z14showLockScreenv+0x118>
    3ffe:	10 92 ce 03 	sts	0x03CE, r1	; 0x8003ce <safety_button_pressed_time>
    4002:	10 92 cf 03 	sts	0x03CF, r1	; 0x8003cf <safety_button_pressed_time+0x1>
    4006:	10 92 d0 03 	sts	0x03D0, r1	; 0x8003d0 <safety_button_pressed_time+0x2>
    400a:	10 92 d1 03 	sts	0x03D1, r1	; 0x8003d1 <safety_button_pressed_time+0x3>
    400e:	0a c0       	rjmp	.+20     	; 0x4024 <_Z14showLockScreenv+0x12c>
    4010:	4c 9b       	sbis	0x09, 4	; 9
    4012:	08 c0       	rjmp	.+16     	; 0x4024 <_Z14showLockScreenv+0x12c>
    4014:	df 91       	pop	r29
    4016:	cf 91       	pop	r28
    4018:	1f 91       	pop	r17
    401a:	0f 91       	pop	r16
    401c:	ff 90       	pop	r15
    401e:	ef 90       	pop	r14
    4020:	0c 94 ab 1e 	jmp	0x3d56	; 0x3d56 <_Z14startRadiationv>
    4024:	df 91       	pop	r29
    4026:	cf 91       	pop	r28
    4028:	1f 91       	pop	r17
    402a:	0f 91       	pop	r16
    402c:	ff 90       	pop	r15
    402e:	ef 90       	pop	r14
    4030:	08 95       	ret

00004032 <_Z16showSplashScreenv>:
    4032:	ef 92       	push	r14
    4034:	ff 92       	push	r15
    4036:	0f 93       	push	r16
    4038:	6e e0       	ldi	r22, 0x0E	; 14
    403a:	71 e0       	ldi	r23, 0x01	; 1
    403c:	8b e4       	ldi	r24, 0x4B	; 75
    403e:	95 e0       	ldi	r25, 0x05	; 5
    4040:	0e 94 bf 1b 	call	0x377e	; 0x377e <_ZN4UART5writeEPc>
    4044:	81 e5       	ldi	r24, 0x51	; 81
    4046:	95 e0       	ldi	r25, 0x05	; 5
    4048:	0e 94 90 19 	call	0x3320	; 0x3320 <u8g_FirstPage>
    404c:	6a eb       	ldi	r22, 0xBA	; 186
    404e:	71 e0       	ldi	r23, 0x01	; 1
    4050:	81 e5       	ldi	r24, 0x51	; 81
    4052:	95 e0       	ldi	r25, 0x05	; 5
    4054:	0e 94 50 18 	call	0x30a0	; 0x30a0 <u8g_SetFont>
    4058:	23 e6       	ldi	r18, 0x63	; 99
    405a:	3b e1       	ldi	r19, 0x1B	; 27
    405c:	48 e0       	ldi	r20, 0x08	; 8
    405e:	62 e2       	ldi	r22, 0x22	; 34
    4060:	81 e5       	ldi	r24, 0x51	; 81
    4062:	95 e0       	ldi	r25, 0x05	; 5
    4064:	0e 94 d7 17 	call	0x2fae	; 0x2fae <u8g_DrawStrP>
    4068:	67 e4       	ldi	r22, 0x47	; 71
    406a:	79 e0       	ldi	r23, 0x09	; 9
    406c:	81 e5       	ldi	r24, 0x51	; 81
    406e:	95 e0       	ldi	r25, 0x05	; 5
    4070:	0e 94 50 18 	call	0x30a0	; 0x30a0 <u8g_SetFont>
    4074:	2d e5       	ldi	r18, 0x5D	; 93
    4076:	3b e1       	ldi	r19, 0x1B	; 27
    4078:	40 e2       	ldi	r20, 0x20	; 32
    407a:	68 e4       	ldi	r22, 0x48	; 72
    407c:	81 e5       	ldi	r24, 0x51	; 81
    407e:	95 e0       	ldi	r25, 0x05	; 5
    4080:	0e 94 d7 17 	call	0x2fae	; 0x2fae <u8g_DrawStrP>
    4084:	6a eb       	ldi	r22, 0xBA	; 186
    4086:	71 e0       	ldi	r23, 0x01	; 1
    4088:	81 e5       	ldi	r24, 0x51	; 81
    408a:	95 e0       	ldi	r25, 0x05	; 5
    408c:	0e 94 50 18 	call	0x30a0	; 0x30a0 <u8g_SetFont>
    4090:	23 e5       	ldi	r18, 0x53	; 83
    4092:	3b e1       	ldi	r19, 0x1B	; 27
    4094:	4c e2       	ldi	r20, 0x2C	; 44
    4096:	68 e4       	ldi	r22, 0x48	; 72
    4098:	81 e5       	ldi	r24, 0x51	; 81
    409a:	95 e0       	ldi	r25, 0x05	; 5
    409c:	0e 94 d7 17 	call	0x2fae	; 0x2fae <u8g_DrawStrP>
    40a0:	64 ec       	ldi	r22, 0xC4	; 196
    40a2:	76 e1       	ldi	r23, 0x16	; 22
    40a4:	81 e5       	ldi	r24, 0x51	; 81
    40a6:	95 e0       	ldi	r25, 0x05	; 5
    40a8:	0e 94 50 18 	call	0x30a0	; 0x30a0 <u8g_SetFont>
    40ac:	22 e4       	ldi	r18, 0x42	; 66
    40ae:	3b e1       	ldi	r19, 0x1B	; 27
    40b0:	40 e4       	ldi	r20, 0x40	; 64
    40b2:	66 e4       	ldi	r22, 0x46	; 70
    40b4:	81 e5       	ldi	r24, 0x51	; 81
    40b6:	95 e0       	ldi	r25, 0x05	; 5
    40b8:	0e 94 d7 17 	call	0x2fae	; 0x2fae <u8g_DrawStrP>
    40bc:	86 e1       	ldi	r24, 0x16	; 22
    40be:	e8 2e       	mov	r14, r24
    40c0:	84 e2       	ldi	r24, 0x24	; 36
    40c2:	f8 2e       	mov	r15, r24
    40c4:	00 e3       	ldi	r16, 0x30	; 48
    40c6:	20 e3       	ldi	r18, 0x30	; 48
    40c8:	40 e1       	ldi	r20, 0x10	; 16
    40ca:	60 e1       	ldi	r22, 0x10	; 16
    40cc:	81 e5       	ldi	r24, 0x51	; 81
    40ce:	95 e0       	ldi	r25, 0x05	; 5
    40d0:	0e 94 4d 13 	call	0x269a	; 0x269a <u8g_DrawXBMP>
    40d4:	81 e5       	ldi	r24, 0x51	; 81
    40d6:	95 e0       	ldi	r25, 0x05	; 5
    40d8:	0e 94 95 19 	call	0x332a	; 0x332a <u8g_NextPage>
    40dc:	81 11       	cpse	r24, r1
    40de:	b6 cf       	rjmp	.-148    	; 0x404c <_Z16showSplashScreenv+0x1a>
    40e0:	80 ed       	ldi	r24, 0xD0	; 208
    40e2:	97 e0       	ldi	r25, 0x07	; 7
    40e4:	0f 91       	pop	r16
    40e6:	ff 90       	pop	r15
    40e8:	ef 90       	pop	r14
    40ea:	0c 94 9a 1e 	jmp	0x3d34	; 0x3d34 <_Z5delayi>

000040ee <_Z22showLastSavedPosScreenv>:
    40ee:	ef 92       	push	r14
    40f0:	ff 92       	push	r15
    40f2:	0f 93       	push	r16
    40f4:	1f 93       	push	r17
    40f6:	cf 93       	push	r28
    40f8:	df 93       	push	r29
    40fa:	0e 94 55 1f 	call	0x3eaa	; 0x3eaa <_Z16loadLastPositionv>
    40fe:	6d e1       	ldi	r22, 0x1D	; 29
    4100:	7c e1       	ldi	r23, 0x1C	; 28
    4102:	81 e5       	ldi	r24, 0x51	; 81
    4104:	95 e0       	ldi	r25, 0x05	; 5
    4106:	0e 94 50 18 	call	0x30a0	; 0x30a0 <u8g_SetFont>
    410a:	80 91 03 04 	lds	r24, 0x0403	; 0x800403 <mavlinkStatus>
    410e:	81 11       	cpse	r24, r1
    4110:	08 c0       	rjmp	.+16     	; 0x4122 <_Z22showLastSavedPosScreenv+0x34>
    4112:	29 e2       	ldi	r18, 0x29	; 41
    4114:	3b e1       	ldi	r19, 0x1B	; 27
    4116:	4a e0       	ldi	r20, 0x0A	; 10
    4118:	60 e1       	ldi	r22, 0x10	; 16
    411a:	81 e5       	ldi	r24, 0x51	; 81
    411c:	95 e0       	ldi	r25, 0x05	; 5
    411e:	0e 94 d7 17 	call	0x2fae	; 0x2fae <u8g_DrawStrP>
    4122:	21 e0       	ldi	r18, 0x01	; 1
    4124:	3b e1       	ldi	r19, 0x1B	; 27
    4126:	48 e1       	ldi	r20, 0x18	; 24
    4128:	64 e0       	ldi	r22, 0x04	; 4
    412a:	81 e5       	ldi	r24, 0x51	; 81
    412c:	95 e0       	ldi	r25, 0x05	; 5
    412e:	0e 94 d7 17 	call	0x2fae	; 0x2fae <u8g_DrawStrP>
    4132:	60 91 22 04 	lds	r22, 0x0422	; 0x800422 <latitude>
    4136:	70 91 23 04 	lds	r23, 0x0423	; 0x800423 <latitude+0x1>
    413a:	80 91 24 04 	lds	r24, 0x0424	; 0x800424 <latitude+0x2>
    413e:	90 91 25 04 	lds	r25, 0x0425	; 0x800425 <latitude+0x3>
    4142:	03 ed       	ldi	r16, 0xD3	; 211
    4144:	13 e0       	ldi	r17, 0x03	; 3
    4146:	27 e0       	ldi	r18, 0x07	; 7
    4148:	4a e0       	ldi	r20, 0x0A	; 10
    414a:	0e 94 d2 26 	call	0x4da4	; 0x4da4 <dtostrf>
    414e:	78 01       	movw	r14, r16
    4150:	ff 92       	push	r15
    4152:	0f 93       	push	r16
    4154:	8a ef       	ldi	r24, 0xFA	; 250
    4156:	9a e1       	ldi	r25, 0x1A	; 26
    4158:	9f 93       	push	r25
    415a:	8f 93       	push	r24
    415c:	c3 ee       	ldi	r28, 0xE3	; 227
    415e:	d3 e0       	ldi	r29, 0x03	; 3
    4160:	df 93       	push	r29
    4162:	cf 93       	push	r28
    4164:	0e 94 fb 26 	call	0x4df6	; 0x4df6 <sprintf_P>
    4168:	9e 01       	movw	r18, r28
    416a:	48 e2       	ldi	r20, 0x28	; 40
    416c:	64 e0       	ldi	r22, 0x04	; 4
    416e:	81 e5       	ldi	r24, 0x51	; 81
    4170:	95 e0       	ldi	r25, 0x05	; 5
    4172:	0e 94 a0 17 	call	0x2f40	; 0x2f40 <u8g_DrawStr>
    4176:	60 91 1e 04 	lds	r22, 0x041E	; 0x80041e <longitude>
    417a:	70 91 1f 04 	lds	r23, 0x041F	; 0x80041f <longitude+0x1>
    417e:	80 91 20 04 	lds	r24, 0x0420	; 0x800420 <longitude+0x2>
    4182:	90 91 21 04 	lds	r25, 0x0421	; 0x800421 <longitude+0x3>
    4186:	27 e0       	ldi	r18, 0x07	; 7
    4188:	4a e0       	ldi	r20, 0x0A	; 10
    418a:	0e 94 d2 26 	call	0x4da4	; 0x4da4 <dtostrf>
    418e:	ff 92       	push	r15
    4190:	0f 93       	push	r16
    4192:	83 ef       	ldi	r24, 0xF3	; 243
    4194:	9a e1       	ldi	r25, 0x1A	; 26
    4196:	9f 93       	push	r25
    4198:	8f 93       	push	r24
    419a:	df 93       	push	r29
    419c:	cf 93       	push	r28
    419e:	0e 94 fb 26 	call	0x4df6	; 0x4df6 <sprintf_P>
    41a2:	9e 01       	movw	r18, r28
    41a4:	42 e3       	ldi	r20, 0x32	; 50
    41a6:	64 e0       	ldi	r22, 0x04	; 4
    41a8:	81 e5       	ldi	r24, 0x51	; 81
    41aa:	95 e0       	ldi	r25, 0x05	; 5
    41ac:	0e 94 a0 17 	call	0x2f40	; 0x2f40 <u8g_DrawStr>
    41b0:	80 91 1d 04 	lds	r24, 0x041D	; 0x80041d <hdg+0x1>
    41b4:	8f 93       	push	r24
    41b6:	80 91 1c 04 	lds	r24, 0x041C	; 0x80041c <hdg>
    41ba:	8f 93       	push	r24
    41bc:	8c ee       	ldi	r24, 0xEC	; 236
    41be:	9a e1       	ldi	r25, 0x1A	; 26
    41c0:	9f 93       	push	r25
    41c2:	8f 93       	push	r24
    41c4:	df 93       	push	r29
    41c6:	cf 93       	push	r28
    41c8:	0e 94 fb 26 	call	0x4df6	; 0x4df6 <sprintf_P>
    41cc:	9e 01       	movw	r18, r28
    41ce:	4c e3       	ldi	r20, 0x3C	; 60
    41d0:	64 e0       	ldi	r22, 0x04	; 4
    41d2:	81 e5       	ldi	r24, 0x51	; 81
    41d4:	95 e0       	ldi	r25, 0x05	; 5
    41d6:	0e 94 a0 17 	call	0x2f40	; 0x2f40 <u8g_DrawStr>
    41da:	04 e2       	ldi	r16, 0x24	; 36
    41dc:	2f e7       	ldi	r18, 0x7F	; 127
    41de:	4c e1       	ldi	r20, 0x1C	; 28
    41e0:	60 e0       	ldi	r22, 0x00	; 0
    41e2:	81 e5       	ldi	r24, 0x51	; 81
    41e4:	95 e0       	ldi	r25, 0x05	; 5
    41e6:	0e 94 45 1b 	call	0x368a	; 0x368a <u8g_DrawFrame>
    41ea:	8d b7       	in	r24, 0x3d	; 61
    41ec:	9e b7       	in	r25, 0x3e	; 62
    41ee:	42 96       	adiw	r24, 0x12	; 18
    41f0:	0f b6       	in	r0, 0x3f	; 63
    41f2:	f8 94       	cli
    41f4:	9e bf       	out	0x3e, r25	; 62
    41f6:	0f be       	out	0x3f, r0	; 63
    41f8:	8d bf       	out	0x3d, r24	; 61
    41fa:	df 91       	pop	r29
    41fc:	cf 91       	pop	r28
    41fe:	1f 91       	pop	r17
    4200:	0f 91       	pop	r16
    4202:	ff 90       	pop	r15
    4204:	ef 90       	pop	r14
    4206:	08 95       	ret

00004208 <_Z21showMavlinkDataScreenv>:
    4208:	8f 92       	push	r8
    420a:	9f 92       	push	r9
    420c:	af 92       	push	r10
    420e:	bf 92       	push	r11
    4210:	ef 92       	push	r14
    4212:	ff 92       	push	r15
    4214:	0f 93       	push	r16
    4216:	1f 93       	push	r17
    4218:	cf 93       	push	r28
    421a:	df 93       	push	r29
    421c:	6a eb       	ldi	r22, 0xBA	; 186
    421e:	71 e0       	ldi	r23, 0x01	; 1
    4220:	81 e5       	ldi	r24, 0x51	; 81
    4222:	95 e0       	ldi	r25, 0x05	; 5
    4224:	0e 94 50 18 	call	0x30a0	; 0x30a0 <u8g_SetFont>
    4228:	60 91 22 04 	lds	r22, 0x0422	; 0x800422 <latitude>
    422c:	70 91 23 04 	lds	r23, 0x0423	; 0x800423 <latitude+0x1>
    4230:	80 91 24 04 	lds	r24, 0x0424	; 0x800424 <latitude+0x2>
    4234:	90 91 25 04 	lds	r25, 0x0425	; 0x800425 <latitude+0x3>
    4238:	03 ed       	ldi	r16, 0xD3	; 211
    423a:	13 e0       	ldi	r17, 0x03	; 3
    423c:	27 e0       	ldi	r18, 0x07	; 7
    423e:	4a e0       	ldi	r20, 0x0A	; 10
    4240:	0e 94 d2 26 	call	0x4da4	; 0x4da4 <dtostrf>
    4244:	78 01       	movw	r14, r16
    4246:	ff 92       	push	r15
    4248:	0f 93       	push	r16
    424a:	85 ee       	ldi	r24, 0xE5	; 229
    424c:	9a e1       	ldi	r25, 0x1A	; 26
    424e:	9f 93       	push	r25
    4250:	8f 93       	push	r24
    4252:	c3 ee       	ldi	r28, 0xE3	; 227
    4254:	d3 e0       	ldi	r29, 0x03	; 3
    4256:	df 93       	push	r29
    4258:	cf 93       	push	r28
    425a:	0e 94 fb 26 	call	0x4df6	; 0x4df6 <sprintf_P>
    425e:	9e 01       	movw	r18, r28
    4260:	48 e0       	ldi	r20, 0x08	; 8
    4262:	60 e0       	ldi	r22, 0x00	; 0
    4264:	81 e5       	ldi	r24, 0x51	; 81
    4266:	95 e0       	ldi	r25, 0x05	; 5
    4268:	0e 94 a0 17 	call	0x2f40	; 0x2f40 <u8g_DrawStr>
    426c:	60 91 1e 04 	lds	r22, 0x041E	; 0x80041e <longitude>
    4270:	70 91 1f 04 	lds	r23, 0x041F	; 0x80041f <longitude+0x1>
    4274:	80 91 20 04 	lds	r24, 0x0420	; 0x800420 <longitude+0x2>
    4278:	90 91 21 04 	lds	r25, 0x0421	; 0x800421 <longitude+0x3>
    427c:	27 e0       	ldi	r18, 0x07	; 7
    427e:	4a e0       	ldi	r20, 0x0A	; 10
    4280:	0e 94 d2 26 	call	0x4da4	; 0x4da4 <dtostrf>
    4284:	ff 92       	push	r15
    4286:	0f 93       	push	r16
    4288:	8e ed       	ldi	r24, 0xDE	; 222
    428a:	9a e1       	ldi	r25, 0x1A	; 26
    428c:	9f 93       	push	r25
    428e:	8f 93       	push	r24
    4290:	df 93       	push	r29
    4292:	cf 93       	push	r28
    4294:	0e 94 fb 26 	call	0x4df6	; 0x4df6 <sprintf_P>
    4298:	9e 01       	movw	r18, r28
    429a:	40 e1       	ldi	r20, 0x10	; 16
    429c:	60 e0       	ldi	r22, 0x00	; 0
    429e:	81 e5       	ldi	r24, 0x51	; 81
    42a0:	95 e0       	ldi	r25, 0x05	; 5
    42a2:	0e 94 a0 17 	call	0x2f40	; 0x2f40 <u8g_DrawStr>
    42a6:	30 91 15 04 	lds	r19, 0x0415	; 0x800415 <fix_type>
    42aa:	8d b7       	in	r24, 0x3d	; 61
    42ac:	9e b7       	in	r25, 0x3e	; 62
    42ae:	0c 96       	adiw	r24, 0x0c	; 12
    42b0:	0f b6       	in	r0, 0x3f	; 63
    42b2:	f8 94       	cli
    42b4:	9e bf       	out	0x3e, r25	; 62
    42b6:	0f be       	out	0x3f, r0	; 63
    42b8:	8d bf       	out	0x3d, r24	; 61
    42ba:	20 91 1d 04 	lds	r18, 0x041D	; 0x80041d <hdg+0x1>
    42be:	90 91 1c 04 	lds	r25, 0x041C	; 0x80041c <hdg>
    42c2:	80 91 16 04 	lds	r24, 0x0416	; 0x800416 <satellites_visible>
    42c6:	32 30       	cpi	r19, 0x02	; 2
    42c8:	a9 f4       	brne	.+42     	; 0x42f4 <_Z21showMavlinkDataScreenv+0xec>
    42ca:	2f 93       	push	r18
    42cc:	9f 93       	push	r25
    42ce:	1f 92       	push	r1
    42d0:	8f 93       	push	r24
    42d2:	8c ec       	ldi	r24, 0xCC	; 204
    42d4:	9a e1       	ldi	r25, 0x1A	; 26
    42d6:	9f 93       	push	r25
    42d8:	8f 93       	push	r24
    42da:	df 93       	push	r29
    42dc:	cf 93       	push	r28
    42de:	0e 94 fb 26 	call	0x4df6	; 0x4df6 <sprintf_P>
    42e2:	8d b7       	in	r24, 0x3d	; 61
    42e4:	9e b7       	in	r25, 0x3e	; 62
    42e6:	08 96       	adiw	r24, 0x08	; 8
    42e8:	0f b6       	in	r0, 0x3f	; 63
    42ea:	f8 94       	cli
    42ec:	9e bf       	out	0x3e, r25	; 62
    42ee:	0f be       	out	0x3f, r0	; 63
    42f0:	8d bf       	out	0x3d, r24	; 61
    42f2:	2b c0       	rjmp	.+86     	; 0x434a <_Z21showMavlinkDataScreenv+0x142>
    42f4:	33 30       	cpi	r19, 0x03	; 3
    42f6:	a8 f0       	brcs	.+42     	; 0x4322 <_Z21showMavlinkDataScreenv+0x11a>
    42f8:	2f 93       	push	r18
    42fa:	9f 93       	push	r25
    42fc:	1f 92       	push	r1
    42fe:	8f 93       	push	r24
    4300:	8a eb       	ldi	r24, 0xBA	; 186
    4302:	9a e1       	ldi	r25, 0x1A	; 26
    4304:	9f 93       	push	r25
    4306:	8f 93       	push	r24
    4308:	df 93       	push	r29
    430a:	cf 93       	push	r28
    430c:	0e 94 fb 26 	call	0x4df6	; 0x4df6 <sprintf_P>
    4310:	8d b7       	in	r24, 0x3d	; 61
    4312:	9e b7       	in	r25, 0x3e	; 62
    4314:	08 96       	adiw	r24, 0x08	; 8
    4316:	0f b6       	in	r0, 0x3f	; 63
    4318:	f8 94       	cli
    431a:	9e bf       	out	0x3e, r25	; 62
    431c:	0f be       	out	0x3f, r0	; 63
    431e:	8d bf       	out	0x3d, r24	; 61
    4320:	14 c0       	rjmp	.+40     	; 0x434a <_Z21showMavlinkDataScreenv+0x142>
    4322:	2f 93       	push	r18
    4324:	9f 93       	push	r25
    4326:	1f 92       	push	r1
    4328:	8f 93       	push	r24
    432a:	88 ea       	ldi	r24, 0xA8	; 168
    432c:	9a e1       	ldi	r25, 0x1A	; 26
    432e:	9f 93       	push	r25
    4330:	8f 93       	push	r24
    4332:	df 93       	push	r29
    4334:	cf 93       	push	r28
    4336:	0e 94 fb 26 	call	0x4df6	; 0x4df6 <sprintf_P>
    433a:	8d b7       	in	r24, 0x3d	; 61
    433c:	9e b7       	in	r25, 0x3e	; 62
    433e:	08 96       	adiw	r24, 0x08	; 8
    4340:	0f b6       	in	r0, 0x3f	; 63
    4342:	f8 94       	cli
    4344:	9e bf       	out	0x3e, r25	; 62
    4346:	0f be       	out	0x3f, r0	; 63
    4348:	8d bf       	out	0x3d, r24	; 61
    434a:	23 ee       	ldi	r18, 0xE3	; 227
    434c:	33 e0       	ldi	r19, 0x03	; 3
    434e:	48 e1       	ldi	r20, 0x18	; 24
    4350:	60 e0       	ldi	r22, 0x00	; 0
    4352:	81 e5       	ldi	r24, 0x51	; 81
    4354:	95 e0       	ldi	r25, 0x05	; 5
    4356:	0e 94 a0 17 	call	0x2f40	; 0x2f40 <u8g_DrawStr>
    435a:	80 91 1b 04 	lds	r24, 0x041B	; 0x80041b <alt+0x3>
    435e:	8f 93       	push	r24
    4360:	80 91 1a 04 	lds	r24, 0x041A	; 0x80041a <alt+0x2>
    4364:	8f 93       	push	r24
    4366:	80 91 19 04 	lds	r24, 0x0419	; 0x800419 <alt+0x1>
    436a:	8f 93       	push	r24
    436c:	80 91 18 04 	lds	r24, 0x0418	; 0x800418 <alt>
    4370:	8f 93       	push	r24
    4372:	80 ea       	ldi	r24, 0xA0	; 160
    4374:	9a e1       	ldi	r25, 0x1A	; 26
    4376:	9f 93       	push	r25
    4378:	8f 93       	push	r24
    437a:	c3 ee       	ldi	r28, 0xE3	; 227
    437c:	d3 e0       	ldi	r29, 0x03	; 3
    437e:	df 93       	push	r29
    4380:	cf 93       	push	r28
    4382:	0e 94 fb 26 	call	0x4df6	; 0x4df6 <sprintf_P>
    4386:	9e 01       	movw	r18, r28
    4388:	40 e2       	ldi	r20, 0x20	; 32
    438a:	60 e0       	ldi	r22, 0x00	; 0
    438c:	81 e5       	ldi	r24, 0x51	; 81
    438e:	95 e0       	ldi	r25, 0x05	; 5
    4390:	0e 94 a0 17 	call	0x2f40	; 0x2f40 <u8g_DrawStr>
    4394:	80 91 17 04 	lds	r24, 0x0417	; 0x800417 <speed>
    4398:	1f 92       	push	r1
    439a:	8f 93       	push	r24
    439c:	83 e9       	ldi	r24, 0x93	; 147
    439e:	9a e1       	ldi	r25, 0x1A	; 26
    43a0:	9f 93       	push	r25
    43a2:	8f 93       	push	r24
    43a4:	df 93       	push	r29
    43a6:	cf 93       	push	r28
    43a8:	0e 94 fb 26 	call	0x4df6	; 0x4df6 <sprintf_P>
    43ac:	9e 01       	movw	r18, r28
    43ae:	48 e2       	ldi	r20, 0x28	; 40
    43b0:	60 e0       	ldi	r22, 0x00	; 0
    43b2:	81 e5       	ldi	r24, 0x51	; 81
    43b4:	95 e0       	ldi	r25, 0x05	; 5
    43b6:	0e 94 a0 17 	call	0x2f40	; 0x2f40 <u8g_DrawStr>
    43ba:	80 91 14 04 	lds	r24, 0x0414	; 0x800414 <rssi>
    43be:	24 e6       	ldi	r18, 0x64	; 100
    43c0:	82 9f       	mul	r24, r18
    43c2:	c0 01       	movw	r24, r0
    43c4:	11 24       	eor	r1, r1
    43c6:	6f ef       	ldi	r22, 0xFF	; 255
    43c8:	70 e0       	ldi	r23, 0x00	; 0
    43ca:	0e 94 77 26 	call	0x4cee	; 0x4cee <__divmodhi4>
    43ce:	7f 93       	push	r23
    43d0:	6f 93       	push	r22
    43d2:	8b e8       	ldi	r24, 0x8B	; 139
    43d4:	9a e1       	ldi	r25, 0x1A	; 26
    43d6:	9f 93       	push	r25
    43d8:	8f 93       	push	r24
    43da:	df 93       	push	r29
    43dc:	cf 93       	push	r28
    43de:	0e 94 fb 26 	call	0x4df6	; 0x4df6 <sprintf_P>
    43e2:	9e 01       	movw	r18, r28
    43e4:	40 e3       	ldi	r20, 0x30	; 48
    43e6:	60 e0       	ldi	r22, 0x00	; 0
    43e8:	81 e5       	ldi	r24, 0x51	; 81
    43ea:	95 e0       	ldi	r25, 0x05	; 5
    43ec:	0e 94 a0 17 	call	0x2f40	; 0x2f40 <u8g_DrawStr>
    43f0:	60 91 04 04 	lds	r22, 0x0404	; 0x800404 <voltage>
    43f4:	70 91 05 04 	lds	r23, 0x0405	; 0x800405 <voltage+0x1>
    43f8:	80 91 06 04 	lds	r24, 0x0406	; 0x800406 <voltage+0x2>
    43fc:	90 91 07 04 	lds	r25, 0x0407	; 0x800407 <voltage+0x3>
    4400:	03 ed       	ldi	r16, 0xD3	; 211
    4402:	13 e0       	ldi	r17, 0x03	; 3
    4404:	22 e0       	ldi	r18, 0x02	; 2
    4406:	44 e0       	ldi	r20, 0x04	; 4
    4408:	0e 94 d2 26 	call	0x4da4	; 0x4da4 <dtostrf>
    440c:	78 01       	movw	r14, r16
    440e:	ff 92       	push	r15
    4410:	0f 93       	push	r16
    4412:	8f e7       	ldi	r24, 0x7F	; 127
    4414:	9a e1       	ldi	r25, 0x1A	; 26
    4416:	9f 93       	push	r25
    4418:	8f 93       	push	r24
    441a:	df 93       	push	r29
    441c:	cf 93       	push	r28
    441e:	0e 94 fb 26 	call	0x4df6	; 0x4df6 <sprintf_P>
    4422:	9e 01       	movw	r18, r28
    4424:	48 e3       	ldi	r20, 0x38	; 56
    4426:	60 e0       	ldi	r22, 0x00	; 0
    4428:	81 e5       	ldi	r24, 0x51	; 81
    442a:	95 e0       	ldi	r25, 0x05	; 5
    442c:	0e 94 a0 17 	call	0x2f40	; 0x2f40 <u8g_DrawStr>
    4430:	80 90 08 04 	lds	r8, 0x0408	; 0x800408 <current>
    4434:	90 90 09 04 	lds	r9, 0x0409	; 0x800409 <current+0x1>
    4438:	a0 90 0a 04 	lds	r10, 0x040A	; 0x80040a <current+0x2>
    443c:	b0 90 0b 04 	lds	r11, 0x040B	; 0x80040b <current+0x3>
    4440:	8d b7       	in	r24, 0x3d	; 61
    4442:	9e b7       	in	r25, 0x3e	; 62
    4444:	4a 96       	adiw	r24, 0x1a	; 26
    4446:	0f b6       	in	r0, 0x3f	; 63
    4448:	f8 94       	cli
    444a:	9e bf       	out	0x3e, r25	; 62
    444c:	0f be       	out	0x3f, r0	; 63
    444e:	8d bf       	out	0x3d, r24	; 61
    4450:	20 e0       	ldi	r18, 0x00	; 0
    4452:	30 e0       	ldi	r19, 0x00	; 0
    4454:	40 e2       	ldi	r20, 0x20	; 32
    4456:	51 e4       	ldi	r21, 0x41	; 65
    4458:	c5 01       	movw	r24, r10
    445a:	b4 01       	movw	r22, r8
    445c:	0e 94 f1 25 	call	0x4be2	; 0x4be2 <__gesf2>
    4460:	80 95       	com	r24
    4462:	48 2f       	mov	r20, r24
    4464:	44 1f       	adc	r20, r20
    4466:	44 27       	eor	r20, r20
    4468:	44 1f       	adc	r20, r20
    446a:	4c 5f       	subi	r20, 0xFC	; 252
    446c:	22 e0       	ldi	r18, 0x02	; 2
    446e:	c5 01       	movw	r24, r10
    4470:	b4 01       	movw	r22, r8
    4472:	0e 94 d2 26 	call	0x4da4	; 0x4da4 <dtostrf>
    4476:	ff 92       	push	r15
    4478:	0f 93       	push	r16
    447a:	83 e7       	ldi	r24, 0x73	; 115
    447c:	9a e1       	ldi	r25, 0x1A	; 26
    447e:	9f 93       	push	r25
    4480:	8f 93       	push	r24
    4482:	df 93       	push	r29
    4484:	cf 93       	push	r28
    4486:	0e 94 fb 26 	call	0x4df6	; 0x4df6 <sprintf_P>
    448a:	0f 90       	pop	r0
    448c:	0f 90       	pop	r0
    448e:	0f 90       	pop	r0
    4490:	0f 90       	pop	r0
    4492:	0f 90       	pop	r0
    4494:	0f 90       	pop	r0
    4496:	9e 01       	movw	r18, r28
    4498:	40 e4       	ldi	r20, 0x40	; 64
    449a:	60 e0       	ldi	r22, 0x00	; 0
    449c:	81 e5       	ldi	r24, 0x51	; 81
    449e:	95 e0       	ldi	r25, 0x05	; 5
    44a0:	df 91       	pop	r29
    44a2:	cf 91       	pop	r28
    44a4:	1f 91       	pop	r17
    44a6:	0f 91       	pop	r16
    44a8:	ff 90       	pop	r15
    44aa:	ef 90       	pop	r14
    44ac:	bf 90       	pop	r11
    44ae:	af 90       	pop	r10
    44b0:	9f 90       	pop	r9
    44b2:	8f 90       	pop	r8
    44b4:	0c 94 a0 17 	jmp	0x2f40	; 0x2f40 <u8g_DrawStr>

000044b8 <_Z22showInputVoltageScreenv>:
    44b8:	8f 92       	push	r8
    44ba:	9f 92       	push	r9
    44bc:	af 92       	push	r10
    44be:	bf 92       	push	r11
    44c0:	cf 92       	push	r12
    44c2:	df 92       	push	r13
    44c4:	ef 92       	push	r14
    44c6:	ff 92       	push	r15
    44c8:	0f 93       	push	r16
    44ca:	1f 93       	push	r17
    44cc:	cf 93       	push	r28
    44ce:	df 93       	push	r29
    44d0:	0e 94 c9 1e 	call	0x3d92	; 0x3d92 <_Z15getInputVoltagev>
    44d4:	4b 01       	movw	r8, r22
    44d6:	5c 01       	movw	r10, r24
    44d8:	81 e5       	ldi	r24, 0x51	; 81
    44da:	95 e0       	ldi	r25, 0x05	; 5
    44dc:	0e 94 90 19 	call	0x3320	; 0x3320 <u8g_FirstPage>
    44e0:	8a e5       	ldi	r24, 0x5A	; 90
    44e2:	c8 2e       	mov	r12, r24
    44e4:	8a e1       	ldi	r24, 0x1A	; 26
    44e6:	d8 2e       	mov	r13, r24
    44e8:	c3 ee       	ldi	r28, 0xE3	; 227
    44ea:	d3 e0       	ldi	r29, 0x03	; 3
    44ec:	94 e5       	ldi	r25, 0x54	; 84
    44ee:	e9 2e       	mov	r14, r25
    44f0:	9a e1       	ldi	r25, 0x1A	; 26
    44f2:	f9 2e       	mov	r15, r25
    44f4:	6d e1       	ldi	r22, 0x1D	; 29
    44f6:	7c e1       	ldi	r23, 0x1C	; 28
    44f8:	81 e5       	ldi	r24, 0x51	; 81
    44fa:	95 e0       	ldi	r25, 0x05	; 5
    44fc:	0e 94 50 18 	call	0x30a0	; 0x30a0 <u8g_SetFont>
    4500:	2e e5       	ldi	r18, 0x5E	; 94
    4502:	3a e1       	ldi	r19, 0x1A	; 26
    4504:	4e e0       	ldi	r20, 0x0E	; 14
    4506:	62 e2       	ldi	r22, 0x22	; 34
    4508:	81 e5       	ldi	r24, 0x51	; 81
    450a:	95 e0       	ldi	r25, 0x05	; 5
    450c:	0e 94 d7 17 	call	0x2fae	; 0x2fae <u8g_DrawStrP>
    4510:	03 ed       	ldi	r16, 0xD3	; 211
    4512:	13 e0       	ldi	r17, 0x03	; 3
    4514:	21 e0       	ldi	r18, 0x01	; 1
    4516:	43 e0       	ldi	r20, 0x03	; 3
    4518:	c5 01       	movw	r24, r10
    451a:	b4 01       	movw	r22, r8
    451c:	0e 94 d2 26 	call	0x4da4	; 0x4da4 <dtostrf>
    4520:	c8 01       	movw	r24, r16
    4522:	9f 93       	push	r25
    4524:	0f 93       	push	r16
    4526:	df 92       	push	r13
    4528:	cf 92       	push	r12
    452a:	df 93       	push	r29
    452c:	cf 93       	push	r28
    452e:	0e 94 fb 26 	call	0x4df6	; 0x4df6 <sprintf_P>
    4532:	67 e4       	ldi	r22, 0x47	; 71
    4534:	79 e0       	ldi	r23, 0x09	; 9
    4536:	81 e5       	ldi	r24, 0x51	; 81
    4538:	95 e0       	ldi	r25, 0x05	; 5
    453a:	0e 94 50 18 	call	0x30a0	; 0x30a0 <u8g_SetFont>
    453e:	23 ee       	ldi	r18, 0xE3	; 227
    4540:	33 e0       	ldi	r19, 0x03	; 3
    4542:	42 e2       	ldi	r20, 0x22	; 34
    4544:	66 e2       	ldi	r22, 0x26	; 38
    4546:	81 e5       	ldi	r24, 0x51	; 81
    4548:	95 e0       	ldi	r25, 0x05	; 5
    454a:	0e 94 a0 17 	call	0x2f40	; 0x2f40 <u8g_DrawStr>
    454e:	0e 94 06 1f 	call	0x3e0c	; 0x3e0c <_Z12getCellCountv>
    4552:	1f 92       	push	r1
    4554:	8f 93       	push	r24
    4556:	ff 92       	push	r15
    4558:	ef 92       	push	r14
    455a:	df 93       	push	r29
    455c:	cf 93       	push	r28
    455e:	0e 94 fb 26 	call	0x4df6	; 0x4df6 <sprintf_P>
    4562:	23 ee       	ldi	r18, 0xE3	; 227
    4564:	33 e0       	ldi	r19, 0x03	; 3
    4566:	48 e3       	ldi	r20, 0x38	; 56
    4568:	6a e2       	ldi	r22, 0x2A	; 42
    456a:	81 e5       	ldi	r24, 0x51	; 81
    456c:	95 e0       	ldi	r25, 0x05	; 5
    456e:	0e 94 a0 17 	call	0x2f40	; 0x2f40 <u8g_DrawStr>
    4572:	81 e5       	ldi	r24, 0x51	; 81
    4574:	95 e0       	ldi	r25, 0x05	; 5
    4576:	0e 94 95 19 	call	0x332a	; 0x332a <u8g_NextPage>
    457a:	2d b7       	in	r18, 0x3d	; 61
    457c:	3e b7       	in	r19, 0x3e	; 62
    457e:	24 5f       	subi	r18, 0xF4	; 244
    4580:	3f 4f       	sbci	r19, 0xFF	; 255
    4582:	0f b6       	in	r0, 0x3f	; 63
    4584:	f8 94       	cli
    4586:	3e bf       	out	0x3e, r19	; 62
    4588:	0f be       	out	0x3f, r0	; 63
    458a:	2d bf       	out	0x3d, r18	; 61
    458c:	81 11       	cpse	r24, r1
    458e:	b2 cf       	rjmp	.-156    	; 0x44f4 <_Z22showInputVoltageScreenv+0x3c>
    4590:	3f ef       	ldi	r19, 0xFF	; 255
    4592:	8d e3       	ldi	r24, 0x3D	; 61
    4594:	99 e4       	ldi	r25, 0x49	; 73
    4596:	31 50       	subi	r19, 0x01	; 1
    4598:	80 40       	sbci	r24, 0x00	; 0
    459a:	90 40       	sbci	r25, 0x00	; 0
    459c:	e1 f7       	brne	.-8      	; 0x4596 <_Z22showInputVoltageScreenv+0xde>
    459e:	00 c0       	rjmp	.+0      	; 0x45a0 <_Z22showInputVoltageScreenv+0xe8>
    45a0:	00 00       	nop
    45a2:	df 91       	pop	r29
    45a4:	cf 91       	pop	r28
    45a6:	1f 91       	pop	r17
    45a8:	0f 91       	pop	r16
    45aa:	ff 90       	pop	r15
    45ac:	ef 90       	pop	r14
    45ae:	df 90       	pop	r13
    45b0:	cf 90       	pop	r12
    45b2:	bf 90       	pop	r11
    45b4:	af 90       	pop	r10
    45b6:	9f 90       	pop	r9
    45b8:	8f 90       	pop	r8
    45ba:	08 95       	ret

000045bc <_Z19checkVoltagePerCellv>:
    45bc:	cf 92       	push	r12
    45be:	df 92       	push	r13
    45c0:	ef 92       	push	r14
    45c2:	ff 92       	push	r15
    45c4:	0f 93       	push	r16
    45c6:	1f 93       	push	r17
    45c8:	0e 94 c9 1e 	call	0x3d92	; 0x3d92 <_Z15getInputVoltagev>
    45cc:	6b 01       	movw	r12, r22
    45ce:	7c 01       	movw	r14, r24
    45d0:	0e 94 06 1f 	call	0x3e0c	; 0x3e0c <_Z12getCellCountv>
    45d4:	68 2f       	mov	r22, r24
    45d6:	70 e0       	ldi	r23, 0x00	; 0
    45d8:	80 e0       	ldi	r24, 0x00	; 0
    45da:	90 e0       	ldi	r25, 0x00	; 0
    45dc:	0e 94 41 25 	call	0x4a82	; 0x4a82 <__floatsisf>
    45e0:	9b 01       	movw	r18, r22
    45e2:	ac 01       	movw	r20, r24
    45e4:	c7 01       	movw	r24, r14
    45e6:	b6 01       	movw	r22, r12
    45e8:	0e 94 9e 24 	call	0x493c	; 0x493c <__divsf3>
    45ec:	20 e0       	ldi	r18, 0x00	; 0
    45ee:	30 e0       	ldi	r19, 0x00	; 0
    45f0:	40 e6       	ldi	r20, 0x60	; 96
    45f2:	50 e4       	ldi	r21, 0x40	; 64
    45f4:	0e 94 99 24 	call	0x4932	; 0x4932 <__cmpsf2>
    45f8:	87 ff       	sbrs	r24, 7
    45fa:	2f c0       	rjmp	.+94     	; 0x465a <_Z19checkVoltagePerCellv+0x9e>
    45fc:	81 e4       	ldi	r24, 0x41	; 65
    45fe:	95 e0       	ldi	r25, 0x05	; 5
    4600:	0e 94 d9 23 	call	0x47b2	; 0x47b2 <_ZN4Time6millisEv>
    4604:	00 91 c6 03 	lds	r16, 0x03C6	; 0x8003c6 <last_voltage_warning_time>
    4608:	10 91 c7 03 	lds	r17, 0x03C7	; 0x8003c7 <last_voltage_warning_time+0x1>
    460c:	20 91 c8 03 	lds	r18, 0x03C8	; 0x8003c8 <last_voltage_warning_time+0x2>
    4610:	30 91 c9 03 	lds	r19, 0x03C9	; 0x8003c9 <last_voltage_warning_time+0x3>
    4614:	dc 01       	movw	r26, r24
    4616:	cb 01       	movw	r24, r22
    4618:	80 1b       	sub	r24, r16
    461a:	91 0b       	sbc	r25, r17
    461c:	a2 0b       	sbc	r26, r18
    461e:	b3 0b       	sbc	r27, r19
    4620:	89 38       	cpi	r24, 0x89	; 137
    4622:	93 41       	sbci	r25, 0x13	; 19
    4624:	a1 05       	cpc	r26, r1
    4626:	b1 05       	cpc	r27, r1
    4628:	c0 f0       	brcs	.+48     	; 0x465a <_Z19checkVoltagePerCellv+0x9e>
    462a:	81 e4       	ldi	r24, 0x41	; 65
    462c:	95 e0       	ldi	r25, 0x05	; 5
    462e:	0e 94 d9 23 	call	0x47b2	; 0x47b2 <_ZN4Time6millisEv>
    4632:	60 93 c6 03 	sts	0x03C6, r22	; 0x8003c6 <last_voltage_warning_time>
    4636:	70 93 c7 03 	sts	0x03C7, r23	; 0x8003c7 <last_voltage_warning_time+0x1>
    463a:	80 93 c8 03 	sts	0x03C8, r24	; 0x8003c8 <last_voltage_warning_time+0x2>
    463e:	90 93 c9 03 	sts	0x03C9, r25	; 0x8003c9 <last_voltage_warning_time+0x3>
    4642:	86 e9       	ldi	r24, 0x96	; 150
    4644:	90 e0       	ldi	r25, 0x00	; 0
    4646:	0e 94 a6 1e 	call	0x3d4c	; 0x3d4c <_Z4beepj>
    464a:	1f 91       	pop	r17
    464c:	0f 91       	pop	r16
    464e:	ff 90       	pop	r15
    4650:	ef 90       	pop	r14
    4652:	df 90       	pop	r13
    4654:	cf 90       	pop	r12
    4656:	0c 94 5c 22 	jmp	0x44b8	; 0x44b8 <_Z22showInputVoltageScreenv>
    465a:	1f 91       	pop	r17
    465c:	0f 91       	pop	r16
    465e:	ff 90       	pop	r15
    4660:	ef 90       	pop	r14
    4662:	df 90       	pop	r13
    4664:	cf 90       	pop	r12
    4666:	08 95       	ret

00004668 <_Z12checkMavlinkv>:
    4668:	0f 93       	push	r16
    466a:	1f 93       	push	r17
    466c:	81 e4       	ldi	r24, 0x41	; 65
    466e:	95 e0       	ldi	r25, 0x05	; 5
    4670:	0e 94 d9 23 	call	0x47b2	; 0x47b2 <_ZN4Time6millisEv>
    4674:	00 91 ca 03 	lds	r16, 0x03CA	; 0x8003ca <last_mavlink_time>
    4678:	10 91 cb 03 	lds	r17, 0x03CB	; 0x8003cb <last_mavlink_time+0x1>
    467c:	20 91 cc 03 	lds	r18, 0x03CC	; 0x8003cc <last_mavlink_time+0x2>
    4680:	30 91 cd 03 	lds	r19, 0x03CD	; 0x8003cd <last_mavlink_time+0x3>
    4684:	dc 01       	movw	r26, r24
    4686:	cb 01       	movw	r24, r22
    4688:	80 1b       	sub	r24, r16
    468a:	91 0b       	sbc	r25, r17
    468c:	a2 0b       	sbc	r26, r18
    468e:	b3 0b       	sbc	r27, r19
    4690:	8d 3d       	cpi	r24, 0xDD	; 221
    4692:	95 40       	sbci	r25, 0x05	; 5
    4694:	a1 05       	cpc	r26, r1
    4696:	b1 05       	cpc	r27, r1
    4698:	50 f0       	brcs	.+20     	; 0x46ae <_Z12checkMavlinkv+0x46>
    469a:	80 91 03 04 	lds	r24, 0x0403	; 0x800403 <mavlinkStatus>
    469e:	81 30       	cpi	r24, 0x01	; 1
    46a0:	31 f4       	brne	.+12     	; 0x46ae <_Z12checkMavlinkv+0x46>
    46a2:	10 92 03 04 	sts	0x0403, r1	; 0x800403 <mavlinkStatus>
    46a6:	1f 91       	pop	r17
    46a8:	0f 91       	pop	r16
    46aa:	0c 94 18 1f 	jmp	0x3e30	; 0x3e30 <_Z16saveLastPositionv>
    46ae:	1f 91       	pop	r17
    46b0:	0f 91       	pop	r16
    46b2:	08 95       	ret

000046b4 <_Z18checkButtonPressedv>:
    46b4:	0f 93       	push	r16
    46b6:	1f 93       	push	r17
    46b8:	4c 9b       	sbis	0x09, 4	; 9
    46ba:	26 c0       	rjmp	.+76     	; 0x4708 <_Z18checkButtonPressedv+0x54>
    46bc:	81 e4       	ldi	r24, 0x41	; 65
    46be:	95 e0       	ldi	r25, 0x05	; 5
    46c0:	0e 94 d9 23 	call	0x47b2	; 0x47b2 <_ZN4Time6millisEv>
    46c4:	60 93 ce 03 	sts	0x03CE, r22	; 0x8003ce <safety_button_pressed_time>
    46c8:	70 93 cf 03 	sts	0x03CF, r23	; 0x8003cf <safety_button_pressed_time+0x1>
    46cc:	80 93 d0 03 	sts	0x03D0, r24	; 0x8003d0 <safety_button_pressed_time+0x2>
    46d0:	90 93 d1 03 	sts	0x03D1, r25	; 0x8003d1 <safety_button_pressed_time+0x3>
    46d4:	81 e4       	ldi	r24, 0x41	; 65
    46d6:	95 e0       	ldi	r25, 0x05	; 5
    46d8:	0e 94 d9 23 	call	0x47b2	; 0x47b2 <_ZN4Time6millisEv>
    46dc:	00 91 ce 03 	lds	r16, 0x03CE	; 0x8003ce <safety_button_pressed_time>
    46e0:	10 91 cf 03 	lds	r17, 0x03CF	; 0x8003cf <safety_button_pressed_time+0x1>
    46e4:	20 91 d0 03 	lds	r18, 0x03D0	; 0x8003d0 <safety_button_pressed_time+0x2>
    46e8:	30 91 d1 03 	lds	r19, 0x03D1	; 0x8003d1 <safety_button_pressed_time+0x3>
    46ec:	dc 01       	movw	r26, r24
    46ee:	cb 01       	movw	r24, r22
    46f0:	80 1b       	sub	r24, r16
    46f2:	91 0b       	sbc	r25, r17
    46f4:	a2 0b       	sbc	r26, r18
    46f6:	b3 0b       	sbc	r27, r19
    46f8:	88 3c       	cpi	r24, 0xC8	; 200
    46fa:	91 05       	cpc	r25, r1
    46fc:	a1 05       	cpc	r26, r1
    46fe:	b1 05       	cpc	r27, r1
    4700:	70 f4       	brcc	.+28     	; 0x471e <_Z18checkButtonPressedv+0x6a>
    4702:	4c 99       	sbic	0x09, 4	; 9
    4704:	e7 cf       	rjmp	.-50     	; 0x46d4 <_Z18checkButtonPressedv+0x20>
    4706:	0b c0       	rjmp	.+22     	; 0x471e <_Z18checkButtonPressedv+0x6a>
    4708:	10 92 ce 03 	sts	0x03CE, r1	; 0x8003ce <safety_button_pressed_time>
    470c:	10 92 cf 03 	sts	0x03CF, r1	; 0x8003cf <safety_button_pressed_time+0x1>
    4710:	10 92 d0 03 	sts	0x03D0, r1	; 0x8003d0 <safety_button_pressed_time+0x2>
    4714:	10 92 d1 03 	sts	0x03D1, r1	; 0x8003d1 <safety_button_pressed_time+0x3>
    4718:	1f 91       	pop	r17
    471a:	0f 91       	pop	r16
    471c:	08 95       	ret
    471e:	86 e9       	ldi	r24, 0x96	; 150
    4720:	90 e0       	ldi	r25, 0x00	; 0
    4722:	0e 94 a6 1e 	call	0x3d4c	; 0x3d4c <_Z4beepj>
    4726:	1f 91       	pop	r17
    4728:	0f 91       	pop	r16
    472a:	0c 94 5c 22 	jmp	0x44b8	; 0x44b8 <_Z22showInputVoltageScreenv>

0000472e <main>:
    472e:	0e 94 7b 1e 	call	0x3cf6	; 0x3cf6 <_Z13init_hardwarev>
    4732:	4c 9b       	sbis	0x09, 4	; 9
    4734:	03 c0       	rjmp	.+6      	; 0x473c <main+0xe>
    4736:	0e 94 ab 1e 	call	0x3d56	; 0x3d56 <_Z14startRadiationv>
    473a:	02 c0       	rjmp	.+4      	; 0x4740 <main+0x12>
    473c:	0e 94 19 20 	call	0x4032	; 0x4032 <_Z16showSplashScreenv>
    4740:	0e 94 de 22 	call	0x45bc	; 0x45bc <_Z19checkVoltagePerCellv>
    4744:	80 91 d2 03 	lds	r24, 0x03D2	; 0x8003d2 <unblock>
    4748:	88 23       	and	r24, r24
    474a:	c1 f0       	breq	.+48     	; 0x477c <main+0x4e>
    474c:	0e 94 34 23 	call	0x4668	; 0x4668 <_Z12checkMavlinkv>
    4750:	0e 94 5a 23 	call	0x46b4	; 0x46b4 <_Z18checkButtonPressedv>
    4754:	81 e5       	ldi	r24, 0x51	; 81
    4756:	95 e0       	ldi	r25, 0x05	; 5
    4758:	0e 94 90 19 	call	0x3320	; 0x3320 <u8g_FirstPage>
    475c:	80 91 03 04 	lds	r24, 0x0403	; 0x800403 <mavlinkStatus>
    4760:	81 11       	cpse	r24, r1
    4762:	03 c0       	rjmp	.+6      	; 0x476a <main+0x3c>
    4764:	0e 94 77 20 	call	0x40ee	; 0x40ee <_Z22showLastSavedPosScreenv>
    4768:	02 c0       	rjmp	.+4      	; 0x476e <main+0x40>
    476a:	0e 94 04 21 	call	0x4208	; 0x4208 <_Z21showMavlinkDataScreenv>
    476e:	81 e5       	ldi	r24, 0x51	; 81
    4770:	95 e0       	ldi	r25, 0x05	; 5
    4772:	0e 94 95 19 	call	0x332a	; 0x332a <u8g_NextPage>
    4776:	81 11       	cpse	r24, r1
    4778:	f1 cf       	rjmp	.-30     	; 0x475c <main+0x2e>
    477a:	e2 cf       	rjmp	.-60     	; 0x4740 <main+0x12>
    477c:	0e 94 7c 1f 	call	0x3ef8	; 0x3ef8 <_Z14showLockScreenv>
    4780:	df cf       	rjmp	.-66     	; 0x4740 <main+0x12>

00004782 <_GLOBAL__sub_I__Z3maplllll>:
    4782:	81 e4       	ldi	r24, 0x41	; 65
    4784:	95 e0       	ldi	r25, 0x05	; 5
    4786:	0c 94 ce 23 	jmp	0x479c	; 0x479c <_ZN4TimeC1Ev>

0000478a <_ZN4Time4initEv>:
    478a:	ee e6       	ldi	r30, 0x6E	; 110
    478c:	f0 e0       	ldi	r31, 0x00	; 0
    478e:	80 81       	ld	r24, Z
    4790:	81 60       	ori	r24, 0x01	; 1
    4792:	80 83       	st	Z, r24
    4794:	85 b5       	in	r24, 0x25	; 37
    4796:	83 60       	ori	r24, 0x03	; 3
    4798:	85 bd       	out	0x25, r24	; 37
    479a:	08 95       	ret

0000479c <_ZN4TimeC1Ev>:
    479c:	fc 01       	movw	r30, r24
    479e:	10 82       	st	Z, r1
    47a0:	11 82       	std	Z+1, r1	; 0x01
    47a2:	12 82       	std	Z+2, r1	; 0x02
    47a4:	13 82       	std	Z+3, r1	; 0x03
    47a6:	14 82       	std	Z+4, r1	; 0x04
    47a8:	15 82       	std	Z+5, r1	; 0x05
    47aa:	16 82       	std	Z+6, r1	; 0x06
    47ac:	17 82       	std	Z+7, r1	; 0x07
    47ae:	10 86       	std	Z+8, r1	; 0x08
    47b0:	08 95       	ret

000047b2 <_ZN4Time6millisEv>:
    47b2:	2f b7       	in	r18, 0x3f	; 63
    47b4:	f8 94       	cli
    47b6:	fc 01       	movw	r30, r24
    47b8:	64 81       	ldd	r22, Z+4	; 0x04
    47ba:	75 81       	ldd	r23, Z+5	; 0x05
    47bc:	86 81       	ldd	r24, Z+6	; 0x06
    47be:	97 81       	ldd	r25, Z+7	; 0x07
    47c0:	2f bf       	out	0x3f, r18	; 63
    47c2:	08 95       	ret

000047c4 <__vector_16>:
    47c4:	1f 92       	push	r1
    47c6:	0f 92       	push	r0
    47c8:	0f b6       	in	r0, 0x3f	; 63
    47ca:	0f 92       	push	r0
    47cc:	11 24       	eor	r1, r1
    47ce:	2f 93       	push	r18
    47d0:	3f 93       	push	r19
    47d2:	8f 93       	push	r24
    47d4:	9f 93       	push	r25
    47d6:	af 93       	push	r26
    47d8:	bf 93       	push	r27
    47da:	80 91 45 05 	lds	r24, 0x0545	; 0x800545 <time+0x4>
    47de:	90 91 46 05 	lds	r25, 0x0546	; 0x800546 <time+0x5>
    47e2:	a0 91 47 05 	lds	r26, 0x0547	; 0x800547 <time+0x6>
    47e6:	b0 91 48 05 	lds	r27, 0x0548	; 0x800548 <time+0x7>
    47ea:	30 91 49 05 	lds	r19, 0x0549	; 0x800549 <time+0x8>
    47ee:	23 e0       	ldi	r18, 0x03	; 3
    47f0:	23 0f       	add	r18, r19
    47f2:	2d 37       	cpi	r18, 0x7D	; 125
    47f4:	20 f4       	brcc	.+8      	; 0x47fe <__vector_16+0x3a>
    47f6:	01 96       	adiw	r24, 0x01	; 1
    47f8:	a1 1d       	adc	r26, r1
    47fa:	b1 1d       	adc	r27, r1
    47fc:	05 c0       	rjmp	.+10     	; 0x4808 <__vector_16+0x44>
    47fe:	26 e8       	ldi	r18, 0x86	; 134
    4800:	23 0f       	add	r18, r19
    4802:	02 96       	adiw	r24, 0x02	; 2
    4804:	a1 1d       	adc	r26, r1
    4806:	b1 1d       	adc	r27, r1
    4808:	20 93 49 05 	sts	0x0549, r18	; 0x800549 <time+0x8>
    480c:	80 93 45 05 	sts	0x0545, r24	; 0x800545 <time+0x4>
    4810:	90 93 46 05 	sts	0x0546, r25	; 0x800546 <time+0x5>
    4814:	a0 93 47 05 	sts	0x0547, r26	; 0x800547 <time+0x6>
    4818:	b0 93 48 05 	sts	0x0548, r27	; 0x800548 <time+0x7>
    481c:	80 91 41 05 	lds	r24, 0x0541	; 0x800541 <time>
    4820:	90 91 42 05 	lds	r25, 0x0542	; 0x800542 <time+0x1>
    4824:	a0 91 43 05 	lds	r26, 0x0543	; 0x800543 <time+0x2>
    4828:	b0 91 44 05 	lds	r27, 0x0544	; 0x800544 <time+0x3>
    482c:	01 96       	adiw	r24, 0x01	; 1
    482e:	a1 1d       	adc	r26, r1
    4830:	b1 1d       	adc	r27, r1
    4832:	80 93 41 05 	sts	0x0541, r24	; 0x800541 <time>
    4836:	90 93 42 05 	sts	0x0542, r25	; 0x800542 <time+0x1>
    483a:	a0 93 43 05 	sts	0x0543, r26	; 0x800543 <time+0x2>
    483e:	b0 93 44 05 	sts	0x0544, r27	; 0x800544 <time+0x3>
    4842:	bf 91       	pop	r27
    4844:	af 91       	pop	r26
    4846:	9f 91       	pop	r25
    4848:	8f 91       	pop	r24
    484a:	3f 91       	pop	r19
    484c:	2f 91       	pop	r18
    484e:	0f 90       	pop	r0
    4850:	0f be       	out	0x3f, r0	; 63
    4852:	0f 90       	pop	r0
    4854:	1f 90       	pop	r1
    4856:	18 95       	reti

00004858 <__subsf3>:
    4858:	50 58       	subi	r21, 0x80	; 128

0000485a <__addsf3>:
    485a:	bb 27       	eor	r27, r27
    485c:	aa 27       	eor	r26, r26
    485e:	0e 94 44 24 	call	0x4888	; 0x4888 <__addsf3x>
    4862:	0c 94 b7 25 	jmp	0x4b6e	; 0x4b6e <__fp_round>
    4866:	0e 94 a9 25 	call	0x4b52	; 0x4b52 <__fp_pscA>
    486a:	38 f0       	brcs	.+14     	; 0x487a <__addsf3+0x20>
    486c:	0e 94 b0 25 	call	0x4b60	; 0x4b60 <__fp_pscB>
    4870:	20 f0       	brcs	.+8      	; 0x487a <__addsf3+0x20>
    4872:	39 f4       	brne	.+14     	; 0x4882 <__addsf3+0x28>
    4874:	9f 3f       	cpi	r25, 0xFF	; 255
    4876:	19 f4       	brne	.+6      	; 0x487e <__addsf3+0x24>
    4878:	26 f4       	brtc	.+8      	; 0x4882 <__addsf3+0x28>
    487a:	0c 94 a6 25 	jmp	0x4b4c	; 0x4b4c <__fp_nan>
    487e:	0e f4       	brtc	.+2      	; 0x4882 <__addsf3+0x28>
    4880:	e0 95       	com	r30
    4882:	e7 fb       	bst	r30, 7
    4884:	0c 94 a0 25 	jmp	0x4b40	; 0x4b40 <__fp_inf>

00004888 <__addsf3x>:
    4888:	e9 2f       	mov	r30, r25
    488a:	0e 94 c8 25 	call	0x4b90	; 0x4b90 <__fp_split3>
    488e:	58 f3       	brcs	.-42     	; 0x4866 <__addsf3+0xc>
    4890:	ba 17       	cp	r27, r26
    4892:	62 07       	cpc	r22, r18
    4894:	73 07       	cpc	r23, r19
    4896:	84 07       	cpc	r24, r20
    4898:	95 07       	cpc	r25, r21
    489a:	20 f0       	brcs	.+8      	; 0x48a4 <__addsf3x+0x1c>
    489c:	79 f4       	brne	.+30     	; 0x48bc <__addsf3x+0x34>
    489e:	a6 f5       	brtc	.+104    	; 0x4908 <__addsf3x+0x80>
    48a0:	0c 94 ea 25 	jmp	0x4bd4	; 0x4bd4 <__fp_zero>
    48a4:	0e f4       	brtc	.+2      	; 0x48a8 <__addsf3x+0x20>
    48a6:	e0 95       	com	r30
    48a8:	0b 2e       	mov	r0, r27
    48aa:	ba 2f       	mov	r27, r26
    48ac:	a0 2d       	mov	r26, r0
    48ae:	0b 01       	movw	r0, r22
    48b0:	b9 01       	movw	r22, r18
    48b2:	90 01       	movw	r18, r0
    48b4:	0c 01       	movw	r0, r24
    48b6:	ca 01       	movw	r24, r20
    48b8:	a0 01       	movw	r20, r0
    48ba:	11 24       	eor	r1, r1
    48bc:	ff 27       	eor	r31, r31
    48be:	59 1b       	sub	r21, r25
    48c0:	99 f0       	breq	.+38     	; 0x48e8 <__addsf3x+0x60>
    48c2:	59 3f       	cpi	r21, 0xF9	; 249
    48c4:	50 f4       	brcc	.+20     	; 0x48da <__addsf3x+0x52>
    48c6:	50 3e       	cpi	r21, 0xE0	; 224
    48c8:	68 f1       	brcs	.+90     	; 0x4924 <__addsf3x+0x9c>
    48ca:	1a 16       	cp	r1, r26
    48cc:	f0 40       	sbci	r31, 0x00	; 0
    48ce:	a2 2f       	mov	r26, r18
    48d0:	23 2f       	mov	r18, r19
    48d2:	34 2f       	mov	r19, r20
    48d4:	44 27       	eor	r20, r20
    48d6:	58 5f       	subi	r21, 0xF8	; 248
    48d8:	f3 cf       	rjmp	.-26     	; 0x48c0 <__addsf3x+0x38>
    48da:	46 95       	lsr	r20
    48dc:	37 95       	ror	r19
    48de:	27 95       	ror	r18
    48e0:	a7 95       	ror	r26
    48e2:	f0 40       	sbci	r31, 0x00	; 0
    48e4:	53 95       	inc	r21
    48e6:	c9 f7       	brne	.-14     	; 0x48da <__addsf3x+0x52>
    48e8:	7e f4       	brtc	.+30     	; 0x4908 <__addsf3x+0x80>
    48ea:	1f 16       	cp	r1, r31
    48ec:	ba 0b       	sbc	r27, r26
    48ee:	62 0b       	sbc	r22, r18
    48f0:	73 0b       	sbc	r23, r19
    48f2:	84 0b       	sbc	r24, r20
    48f4:	ba f0       	brmi	.+46     	; 0x4924 <__addsf3x+0x9c>
    48f6:	91 50       	subi	r25, 0x01	; 1
    48f8:	a1 f0       	breq	.+40     	; 0x4922 <__addsf3x+0x9a>
    48fa:	ff 0f       	add	r31, r31
    48fc:	bb 1f       	adc	r27, r27
    48fe:	66 1f       	adc	r22, r22
    4900:	77 1f       	adc	r23, r23
    4902:	88 1f       	adc	r24, r24
    4904:	c2 f7       	brpl	.-16     	; 0x48f6 <__addsf3x+0x6e>
    4906:	0e c0       	rjmp	.+28     	; 0x4924 <__addsf3x+0x9c>
    4908:	ba 0f       	add	r27, r26
    490a:	62 1f       	adc	r22, r18
    490c:	73 1f       	adc	r23, r19
    490e:	84 1f       	adc	r24, r20
    4910:	48 f4       	brcc	.+18     	; 0x4924 <__addsf3x+0x9c>
    4912:	87 95       	ror	r24
    4914:	77 95       	ror	r23
    4916:	67 95       	ror	r22
    4918:	b7 95       	ror	r27
    491a:	f7 95       	ror	r31
    491c:	9e 3f       	cpi	r25, 0xFE	; 254
    491e:	08 f0       	brcs	.+2      	; 0x4922 <__addsf3x+0x9a>
    4920:	b0 cf       	rjmp	.-160    	; 0x4882 <__addsf3+0x28>
    4922:	93 95       	inc	r25
    4924:	88 0f       	add	r24, r24
    4926:	08 f0       	brcs	.+2      	; 0x492a <__addsf3x+0xa2>
    4928:	99 27       	eor	r25, r25
    492a:	ee 0f       	add	r30, r30
    492c:	97 95       	ror	r25
    492e:	87 95       	ror	r24
    4930:	08 95       	ret

00004932 <__cmpsf2>:
    4932:	0e 94 7c 25 	call	0x4af8	; 0x4af8 <__fp_cmp>
    4936:	08 f4       	brcc	.+2      	; 0x493a <__cmpsf2+0x8>
    4938:	81 e0       	ldi	r24, 0x01	; 1
    493a:	08 95       	ret

0000493c <__divsf3>:
    493c:	0e 94 b2 24 	call	0x4964	; 0x4964 <__divsf3x>
    4940:	0c 94 b7 25 	jmp	0x4b6e	; 0x4b6e <__fp_round>
    4944:	0e 94 b0 25 	call	0x4b60	; 0x4b60 <__fp_pscB>
    4948:	58 f0       	brcs	.+22     	; 0x4960 <__divsf3+0x24>
    494a:	0e 94 a9 25 	call	0x4b52	; 0x4b52 <__fp_pscA>
    494e:	40 f0       	brcs	.+16     	; 0x4960 <__divsf3+0x24>
    4950:	29 f4       	brne	.+10     	; 0x495c <__divsf3+0x20>
    4952:	5f 3f       	cpi	r21, 0xFF	; 255
    4954:	29 f0       	breq	.+10     	; 0x4960 <__divsf3+0x24>
    4956:	0c 94 a0 25 	jmp	0x4b40	; 0x4b40 <__fp_inf>
    495a:	51 11       	cpse	r21, r1
    495c:	0c 94 eb 25 	jmp	0x4bd6	; 0x4bd6 <__fp_szero>
    4960:	0c 94 a6 25 	jmp	0x4b4c	; 0x4b4c <__fp_nan>

00004964 <__divsf3x>:
    4964:	0e 94 c8 25 	call	0x4b90	; 0x4b90 <__fp_split3>
    4968:	68 f3       	brcs	.-38     	; 0x4944 <__divsf3+0x8>

0000496a <__divsf3_pse>:
    496a:	99 23       	and	r25, r25
    496c:	b1 f3       	breq	.-20     	; 0x495a <__divsf3+0x1e>
    496e:	55 23       	and	r21, r21
    4970:	91 f3       	breq	.-28     	; 0x4956 <__divsf3+0x1a>
    4972:	95 1b       	sub	r25, r21
    4974:	55 0b       	sbc	r21, r21
    4976:	bb 27       	eor	r27, r27
    4978:	aa 27       	eor	r26, r26
    497a:	62 17       	cp	r22, r18
    497c:	73 07       	cpc	r23, r19
    497e:	84 07       	cpc	r24, r20
    4980:	38 f0       	brcs	.+14     	; 0x4990 <__divsf3_pse+0x26>
    4982:	9f 5f       	subi	r25, 0xFF	; 255
    4984:	5f 4f       	sbci	r21, 0xFF	; 255
    4986:	22 0f       	add	r18, r18
    4988:	33 1f       	adc	r19, r19
    498a:	44 1f       	adc	r20, r20
    498c:	aa 1f       	adc	r26, r26
    498e:	a9 f3       	breq	.-22     	; 0x497a <__divsf3_pse+0x10>
    4990:	35 d0       	rcall	.+106    	; 0x49fc <__divsf3_pse+0x92>
    4992:	0e 2e       	mov	r0, r30
    4994:	3a f0       	brmi	.+14     	; 0x49a4 <__divsf3_pse+0x3a>
    4996:	e0 e8       	ldi	r30, 0x80	; 128
    4998:	32 d0       	rcall	.+100    	; 0x49fe <__divsf3_pse+0x94>
    499a:	91 50       	subi	r25, 0x01	; 1
    499c:	50 40       	sbci	r21, 0x00	; 0
    499e:	e6 95       	lsr	r30
    49a0:	00 1c       	adc	r0, r0
    49a2:	ca f7       	brpl	.-14     	; 0x4996 <__divsf3_pse+0x2c>
    49a4:	2b d0       	rcall	.+86     	; 0x49fc <__divsf3_pse+0x92>
    49a6:	fe 2f       	mov	r31, r30
    49a8:	29 d0       	rcall	.+82     	; 0x49fc <__divsf3_pse+0x92>
    49aa:	66 0f       	add	r22, r22
    49ac:	77 1f       	adc	r23, r23
    49ae:	88 1f       	adc	r24, r24
    49b0:	bb 1f       	adc	r27, r27
    49b2:	26 17       	cp	r18, r22
    49b4:	37 07       	cpc	r19, r23
    49b6:	48 07       	cpc	r20, r24
    49b8:	ab 07       	cpc	r26, r27
    49ba:	b0 e8       	ldi	r27, 0x80	; 128
    49bc:	09 f0       	breq	.+2      	; 0x49c0 <__divsf3_pse+0x56>
    49be:	bb 0b       	sbc	r27, r27
    49c0:	80 2d       	mov	r24, r0
    49c2:	bf 01       	movw	r22, r30
    49c4:	ff 27       	eor	r31, r31
    49c6:	93 58       	subi	r25, 0x83	; 131
    49c8:	5f 4f       	sbci	r21, 0xFF	; 255
    49ca:	3a f0       	brmi	.+14     	; 0x49da <__divsf3_pse+0x70>
    49cc:	9e 3f       	cpi	r25, 0xFE	; 254
    49ce:	51 05       	cpc	r21, r1
    49d0:	78 f0       	brcs	.+30     	; 0x49f0 <__divsf3_pse+0x86>
    49d2:	0c 94 a0 25 	jmp	0x4b40	; 0x4b40 <__fp_inf>
    49d6:	0c 94 eb 25 	jmp	0x4bd6	; 0x4bd6 <__fp_szero>
    49da:	5f 3f       	cpi	r21, 0xFF	; 255
    49dc:	e4 f3       	brlt	.-8      	; 0x49d6 <__divsf3_pse+0x6c>
    49de:	98 3e       	cpi	r25, 0xE8	; 232
    49e0:	d4 f3       	brlt	.-12     	; 0x49d6 <__divsf3_pse+0x6c>
    49e2:	86 95       	lsr	r24
    49e4:	77 95       	ror	r23
    49e6:	67 95       	ror	r22
    49e8:	b7 95       	ror	r27
    49ea:	f7 95       	ror	r31
    49ec:	9f 5f       	subi	r25, 0xFF	; 255
    49ee:	c9 f7       	brne	.-14     	; 0x49e2 <__divsf3_pse+0x78>
    49f0:	88 0f       	add	r24, r24
    49f2:	91 1d       	adc	r25, r1
    49f4:	96 95       	lsr	r25
    49f6:	87 95       	ror	r24
    49f8:	97 f9       	bld	r25, 7
    49fa:	08 95       	ret
    49fc:	e1 e0       	ldi	r30, 0x01	; 1
    49fe:	66 0f       	add	r22, r22
    4a00:	77 1f       	adc	r23, r23
    4a02:	88 1f       	adc	r24, r24
    4a04:	bb 1f       	adc	r27, r27
    4a06:	62 17       	cp	r22, r18
    4a08:	73 07       	cpc	r23, r19
    4a0a:	84 07       	cpc	r24, r20
    4a0c:	ba 07       	cpc	r27, r26
    4a0e:	20 f0       	brcs	.+8      	; 0x4a18 <__divsf3_pse+0xae>
    4a10:	62 1b       	sub	r22, r18
    4a12:	73 0b       	sbc	r23, r19
    4a14:	84 0b       	sbc	r24, r20
    4a16:	ba 0b       	sbc	r27, r26
    4a18:	ee 1f       	adc	r30, r30
    4a1a:	88 f7       	brcc	.-30     	; 0x49fe <__divsf3_pse+0x94>
    4a1c:	e0 95       	com	r30
    4a1e:	08 95       	ret

00004a20 <__fixunssfsi>:
    4a20:	0e 94 d0 25 	call	0x4ba0	; 0x4ba0 <__fp_splitA>
    4a24:	88 f0       	brcs	.+34     	; 0x4a48 <__fixunssfsi+0x28>
    4a26:	9f 57       	subi	r25, 0x7F	; 127
    4a28:	98 f0       	brcs	.+38     	; 0x4a50 <__fixunssfsi+0x30>
    4a2a:	b9 2f       	mov	r27, r25
    4a2c:	99 27       	eor	r25, r25
    4a2e:	b7 51       	subi	r27, 0x17	; 23
    4a30:	b0 f0       	brcs	.+44     	; 0x4a5e <__fixunssfsi+0x3e>
    4a32:	e1 f0       	breq	.+56     	; 0x4a6c <__fixunssfsi+0x4c>
    4a34:	66 0f       	add	r22, r22
    4a36:	77 1f       	adc	r23, r23
    4a38:	88 1f       	adc	r24, r24
    4a3a:	99 1f       	adc	r25, r25
    4a3c:	1a f0       	brmi	.+6      	; 0x4a44 <__fixunssfsi+0x24>
    4a3e:	ba 95       	dec	r27
    4a40:	c9 f7       	brne	.-14     	; 0x4a34 <__fixunssfsi+0x14>
    4a42:	14 c0       	rjmp	.+40     	; 0x4a6c <__fixunssfsi+0x4c>
    4a44:	b1 30       	cpi	r27, 0x01	; 1
    4a46:	91 f0       	breq	.+36     	; 0x4a6c <__fixunssfsi+0x4c>
    4a48:	0e 94 ea 25 	call	0x4bd4	; 0x4bd4 <__fp_zero>
    4a4c:	b1 e0       	ldi	r27, 0x01	; 1
    4a4e:	08 95       	ret
    4a50:	0c 94 ea 25 	jmp	0x4bd4	; 0x4bd4 <__fp_zero>
    4a54:	67 2f       	mov	r22, r23
    4a56:	78 2f       	mov	r23, r24
    4a58:	88 27       	eor	r24, r24
    4a5a:	b8 5f       	subi	r27, 0xF8	; 248
    4a5c:	39 f0       	breq	.+14     	; 0x4a6c <__fixunssfsi+0x4c>
    4a5e:	b9 3f       	cpi	r27, 0xF9	; 249
    4a60:	cc f3       	brlt	.-14     	; 0x4a54 <__fixunssfsi+0x34>
    4a62:	86 95       	lsr	r24
    4a64:	77 95       	ror	r23
    4a66:	67 95       	ror	r22
    4a68:	b3 95       	inc	r27
    4a6a:	d9 f7       	brne	.-10     	; 0x4a62 <__fixunssfsi+0x42>
    4a6c:	3e f4       	brtc	.+14     	; 0x4a7c <__fixunssfsi+0x5c>
    4a6e:	90 95       	com	r25
    4a70:	80 95       	com	r24
    4a72:	70 95       	com	r23
    4a74:	61 95       	neg	r22
    4a76:	7f 4f       	sbci	r23, 0xFF	; 255
    4a78:	8f 4f       	sbci	r24, 0xFF	; 255
    4a7a:	9f 4f       	sbci	r25, 0xFF	; 255
    4a7c:	08 95       	ret

00004a7e <__floatunsisf>:
    4a7e:	e8 94       	clt
    4a80:	09 c0       	rjmp	.+18     	; 0x4a94 <__floatsisf+0x12>

00004a82 <__floatsisf>:
    4a82:	97 fb       	bst	r25, 7
    4a84:	3e f4       	brtc	.+14     	; 0x4a94 <__floatsisf+0x12>
    4a86:	90 95       	com	r25
    4a88:	80 95       	com	r24
    4a8a:	70 95       	com	r23
    4a8c:	61 95       	neg	r22
    4a8e:	7f 4f       	sbci	r23, 0xFF	; 255
    4a90:	8f 4f       	sbci	r24, 0xFF	; 255
    4a92:	9f 4f       	sbci	r25, 0xFF	; 255
    4a94:	99 23       	and	r25, r25
    4a96:	a9 f0       	breq	.+42     	; 0x4ac2 <__floatsisf+0x40>
    4a98:	f9 2f       	mov	r31, r25
    4a9a:	96 e9       	ldi	r25, 0x96	; 150
    4a9c:	bb 27       	eor	r27, r27
    4a9e:	93 95       	inc	r25
    4aa0:	f6 95       	lsr	r31
    4aa2:	87 95       	ror	r24
    4aa4:	77 95       	ror	r23
    4aa6:	67 95       	ror	r22
    4aa8:	b7 95       	ror	r27
    4aaa:	f1 11       	cpse	r31, r1
    4aac:	f8 cf       	rjmp	.-16     	; 0x4a9e <__floatsisf+0x1c>
    4aae:	fa f4       	brpl	.+62     	; 0x4aee <__floatsisf+0x6c>
    4ab0:	bb 0f       	add	r27, r27
    4ab2:	11 f4       	brne	.+4      	; 0x4ab8 <__floatsisf+0x36>
    4ab4:	60 ff       	sbrs	r22, 0
    4ab6:	1b c0       	rjmp	.+54     	; 0x4aee <__floatsisf+0x6c>
    4ab8:	6f 5f       	subi	r22, 0xFF	; 255
    4aba:	7f 4f       	sbci	r23, 0xFF	; 255
    4abc:	8f 4f       	sbci	r24, 0xFF	; 255
    4abe:	9f 4f       	sbci	r25, 0xFF	; 255
    4ac0:	16 c0       	rjmp	.+44     	; 0x4aee <__floatsisf+0x6c>
    4ac2:	88 23       	and	r24, r24
    4ac4:	11 f0       	breq	.+4      	; 0x4aca <__floatsisf+0x48>
    4ac6:	96 e9       	ldi	r25, 0x96	; 150
    4ac8:	11 c0       	rjmp	.+34     	; 0x4aec <__floatsisf+0x6a>
    4aca:	77 23       	and	r23, r23
    4acc:	21 f0       	breq	.+8      	; 0x4ad6 <__floatsisf+0x54>
    4ace:	9e e8       	ldi	r25, 0x8E	; 142
    4ad0:	87 2f       	mov	r24, r23
    4ad2:	76 2f       	mov	r23, r22
    4ad4:	05 c0       	rjmp	.+10     	; 0x4ae0 <__floatsisf+0x5e>
    4ad6:	66 23       	and	r22, r22
    4ad8:	71 f0       	breq	.+28     	; 0x4af6 <__floatsisf+0x74>
    4ada:	96 e8       	ldi	r25, 0x86	; 134
    4adc:	86 2f       	mov	r24, r22
    4ade:	70 e0       	ldi	r23, 0x00	; 0
    4ae0:	60 e0       	ldi	r22, 0x00	; 0
    4ae2:	2a f0       	brmi	.+10     	; 0x4aee <__floatsisf+0x6c>
    4ae4:	9a 95       	dec	r25
    4ae6:	66 0f       	add	r22, r22
    4ae8:	77 1f       	adc	r23, r23
    4aea:	88 1f       	adc	r24, r24
    4aec:	da f7       	brpl	.-10     	; 0x4ae4 <__floatsisf+0x62>
    4aee:	88 0f       	add	r24, r24
    4af0:	96 95       	lsr	r25
    4af2:	87 95       	ror	r24
    4af4:	97 f9       	bld	r25, 7
    4af6:	08 95       	ret

00004af8 <__fp_cmp>:
    4af8:	99 0f       	add	r25, r25
    4afa:	00 08       	sbc	r0, r0
    4afc:	55 0f       	add	r21, r21
    4afe:	aa 0b       	sbc	r26, r26
    4b00:	e0 e8       	ldi	r30, 0x80	; 128
    4b02:	fe ef       	ldi	r31, 0xFE	; 254
    4b04:	16 16       	cp	r1, r22
    4b06:	17 06       	cpc	r1, r23
    4b08:	e8 07       	cpc	r30, r24
    4b0a:	f9 07       	cpc	r31, r25
    4b0c:	c0 f0       	brcs	.+48     	; 0x4b3e <__fp_cmp+0x46>
    4b0e:	12 16       	cp	r1, r18
    4b10:	13 06       	cpc	r1, r19
    4b12:	e4 07       	cpc	r30, r20
    4b14:	f5 07       	cpc	r31, r21
    4b16:	98 f0       	brcs	.+38     	; 0x4b3e <__fp_cmp+0x46>
    4b18:	62 1b       	sub	r22, r18
    4b1a:	73 0b       	sbc	r23, r19
    4b1c:	84 0b       	sbc	r24, r20
    4b1e:	95 0b       	sbc	r25, r21
    4b20:	39 f4       	brne	.+14     	; 0x4b30 <__fp_cmp+0x38>
    4b22:	0a 26       	eor	r0, r26
    4b24:	61 f0       	breq	.+24     	; 0x4b3e <__fp_cmp+0x46>
    4b26:	23 2b       	or	r18, r19
    4b28:	24 2b       	or	r18, r20
    4b2a:	25 2b       	or	r18, r21
    4b2c:	21 f4       	brne	.+8      	; 0x4b36 <__fp_cmp+0x3e>
    4b2e:	08 95       	ret
    4b30:	0a 26       	eor	r0, r26
    4b32:	09 f4       	brne	.+2      	; 0x4b36 <__fp_cmp+0x3e>
    4b34:	a1 40       	sbci	r26, 0x01	; 1
    4b36:	a6 95       	lsr	r26
    4b38:	8f ef       	ldi	r24, 0xFF	; 255
    4b3a:	81 1d       	adc	r24, r1
    4b3c:	81 1d       	adc	r24, r1
    4b3e:	08 95       	ret

00004b40 <__fp_inf>:
    4b40:	97 f9       	bld	r25, 7
    4b42:	9f 67       	ori	r25, 0x7F	; 127
    4b44:	80 e8       	ldi	r24, 0x80	; 128
    4b46:	70 e0       	ldi	r23, 0x00	; 0
    4b48:	60 e0       	ldi	r22, 0x00	; 0
    4b4a:	08 95       	ret

00004b4c <__fp_nan>:
    4b4c:	9f ef       	ldi	r25, 0xFF	; 255
    4b4e:	80 ec       	ldi	r24, 0xC0	; 192
    4b50:	08 95       	ret

00004b52 <__fp_pscA>:
    4b52:	00 24       	eor	r0, r0
    4b54:	0a 94       	dec	r0
    4b56:	16 16       	cp	r1, r22
    4b58:	17 06       	cpc	r1, r23
    4b5a:	18 06       	cpc	r1, r24
    4b5c:	09 06       	cpc	r0, r25
    4b5e:	08 95       	ret

00004b60 <__fp_pscB>:
    4b60:	00 24       	eor	r0, r0
    4b62:	0a 94       	dec	r0
    4b64:	12 16       	cp	r1, r18
    4b66:	13 06       	cpc	r1, r19
    4b68:	14 06       	cpc	r1, r20
    4b6a:	05 06       	cpc	r0, r21
    4b6c:	08 95       	ret

00004b6e <__fp_round>:
    4b6e:	09 2e       	mov	r0, r25
    4b70:	03 94       	inc	r0
    4b72:	00 0c       	add	r0, r0
    4b74:	11 f4       	brne	.+4      	; 0x4b7a <__fp_round+0xc>
    4b76:	88 23       	and	r24, r24
    4b78:	52 f0       	brmi	.+20     	; 0x4b8e <__fp_round+0x20>
    4b7a:	bb 0f       	add	r27, r27
    4b7c:	40 f4       	brcc	.+16     	; 0x4b8e <__fp_round+0x20>
    4b7e:	bf 2b       	or	r27, r31
    4b80:	11 f4       	brne	.+4      	; 0x4b86 <__fp_round+0x18>
    4b82:	60 ff       	sbrs	r22, 0
    4b84:	04 c0       	rjmp	.+8      	; 0x4b8e <__fp_round+0x20>
    4b86:	6f 5f       	subi	r22, 0xFF	; 255
    4b88:	7f 4f       	sbci	r23, 0xFF	; 255
    4b8a:	8f 4f       	sbci	r24, 0xFF	; 255
    4b8c:	9f 4f       	sbci	r25, 0xFF	; 255
    4b8e:	08 95       	ret

00004b90 <__fp_split3>:
    4b90:	57 fd       	sbrc	r21, 7
    4b92:	90 58       	subi	r25, 0x80	; 128
    4b94:	44 0f       	add	r20, r20
    4b96:	55 1f       	adc	r21, r21
    4b98:	59 f0       	breq	.+22     	; 0x4bb0 <__fp_splitA+0x10>
    4b9a:	5f 3f       	cpi	r21, 0xFF	; 255
    4b9c:	71 f0       	breq	.+28     	; 0x4bba <__fp_splitA+0x1a>
    4b9e:	47 95       	ror	r20

00004ba0 <__fp_splitA>:
    4ba0:	88 0f       	add	r24, r24
    4ba2:	97 fb       	bst	r25, 7
    4ba4:	99 1f       	adc	r25, r25
    4ba6:	61 f0       	breq	.+24     	; 0x4bc0 <__fp_splitA+0x20>
    4ba8:	9f 3f       	cpi	r25, 0xFF	; 255
    4baa:	79 f0       	breq	.+30     	; 0x4bca <__fp_splitA+0x2a>
    4bac:	87 95       	ror	r24
    4bae:	08 95       	ret
    4bb0:	12 16       	cp	r1, r18
    4bb2:	13 06       	cpc	r1, r19
    4bb4:	14 06       	cpc	r1, r20
    4bb6:	55 1f       	adc	r21, r21
    4bb8:	f2 cf       	rjmp	.-28     	; 0x4b9e <__fp_split3+0xe>
    4bba:	46 95       	lsr	r20
    4bbc:	f1 df       	rcall	.-30     	; 0x4ba0 <__fp_splitA>
    4bbe:	08 c0       	rjmp	.+16     	; 0x4bd0 <__fp_splitA+0x30>
    4bc0:	16 16       	cp	r1, r22
    4bc2:	17 06       	cpc	r1, r23
    4bc4:	18 06       	cpc	r1, r24
    4bc6:	99 1f       	adc	r25, r25
    4bc8:	f1 cf       	rjmp	.-30     	; 0x4bac <__fp_splitA+0xc>
    4bca:	86 95       	lsr	r24
    4bcc:	71 05       	cpc	r23, r1
    4bce:	61 05       	cpc	r22, r1
    4bd0:	08 94       	sec
    4bd2:	08 95       	ret

00004bd4 <__fp_zero>:
    4bd4:	e8 94       	clt

00004bd6 <__fp_szero>:
    4bd6:	bb 27       	eor	r27, r27
    4bd8:	66 27       	eor	r22, r22
    4bda:	77 27       	eor	r23, r23
    4bdc:	cb 01       	movw	r24, r22
    4bde:	97 f9       	bld	r25, 7
    4be0:	08 95       	ret

00004be2 <__gesf2>:
    4be2:	0e 94 7c 25 	call	0x4af8	; 0x4af8 <__fp_cmp>
    4be6:	08 f4       	brcc	.+2      	; 0x4bea <__gesf2+0x8>
    4be8:	8f ef       	ldi	r24, 0xFF	; 255
    4bea:	08 95       	ret

00004bec <__mulsf3>:
    4bec:	0e 94 09 26 	call	0x4c12	; 0x4c12 <__mulsf3x>
    4bf0:	0c 94 b7 25 	jmp	0x4b6e	; 0x4b6e <__fp_round>
    4bf4:	0e 94 a9 25 	call	0x4b52	; 0x4b52 <__fp_pscA>
    4bf8:	38 f0       	brcs	.+14     	; 0x4c08 <__mulsf3+0x1c>
    4bfa:	0e 94 b0 25 	call	0x4b60	; 0x4b60 <__fp_pscB>
    4bfe:	20 f0       	brcs	.+8      	; 0x4c08 <__mulsf3+0x1c>
    4c00:	95 23       	and	r25, r21
    4c02:	11 f0       	breq	.+4      	; 0x4c08 <__mulsf3+0x1c>
    4c04:	0c 94 a0 25 	jmp	0x4b40	; 0x4b40 <__fp_inf>
    4c08:	0c 94 a6 25 	jmp	0x4b4c	; 0x4b4c <__fp_nan>
    4c0c:	11 24       	eor	r1, r1
    4c0e:	0c 94 eb 25 	jmp	0x4bd6	; 0x4bd6 <__fp_szero>

00004c12 <__mulsf3x>:
    4c12:	0e 94 c8 25 	call	0x4b90	; 0x4b90 <__fp_split3>
    4c16:	70 f3       	brcs	.-36     	; 0x4bf4 <__mulsf3+0x8>

00004c18 <__mulsf3_pse>:
    4c18:	95 9f       	mul	r25, r21
    4c1a:	c1 f3       	breq	.-16     	; 0x4c0c <__mulsf3+0x20>
    4c1c:	95 0f       	add	r25, r21
    4c1e:	50 e0       	ldi	r21, 0x00	; 0
    4c20:	55 1f       	adc	r21, r21
    4c22:	62 9f       	mul	r22, r18
    4c24:	f0 01       	movw	r30, r0
    4c26:	72 9f       	mul	r23, r18
    4c28:	bb 27       	eor	r27, r27
    4c2a:	f0 0d       	add	r31, r0
    4c2c:	b1 1d       	adc	r27, r1
    4c2e:	63 9f       	mul	r22, r19
    4c30:	aa 27       	eor	r26, r26
    4c32:	f0 0d       	add	r31, r0
    4c34:	b1 1d       	adc	r27, r1
    4c36:	aa 1f       	adc	r26, r26
    4c38:	64 9f       	mul	r22, r20
    4c3a:	66 27       	eor	r22, r22
    4c3c:	b0 0d       	add	r27, r0
    4c3e:	a1 1d       	adc	r26, r1
    4c40:	66 1f       	adc	r22, r22
    4c42:	82 9f       	mul	r24, r18
    4c44:	22 27       	eor	r18, r18
    4c46:	b0 0d       	add	r27, r0
    4c48:	a1 1d       	adc	r26, r1
    4c4a:	62 1f       	adc	r22, r18
    4c4c:	73 9f       	mul	r23, r19
    4c4e:	b0 0d       	add	r27, r0
    4c50:	a1 1d       	adc	r26, r1
    4c52:	62 1f       	adc	r22, r18
    4c54:	83 9f       	mul	r24, r19
    4c56:	a0 0d       	add	r26, r0
    4c58:	61 1d       	adc	r22, r1
    4c5a:	22 1f       	adc	r18, r18
    4c5c:	74 9f       	mul	r23, r20
    4c5e:	33 27       	eor	r19, r19
    4c60:	a0 0d       	add	r26, r0
    4c62:	61 1d       	adc	r22, r1
    4c64:	23 1f       	adc	r18, r19
    4c66:	84 9f       	mul	r24, r20
    4c68:	60 0d       	add	r22, r0
    4c6a:	21 1d       	adc	r18, r1
    4c6c:	82 2f       	mov	r24, r18
    4c6e:	76 2f       	mov	r23, r22
    4c70:	6a 2f       	mov	r22, r26
    4c72:	11 24       	eor	r1, r1
    4c74:	9f 57       	subi	r25, 0x7F	; 127
    4c76:	50 40       	sbci	r21, 0x00	; 0
    4c78:	9a f0       	brmi	.+38     	; 0x4ca0 <__mulsf3_pse+0x88>
    4c7a:	f1 f0       	breq	.+60     	; 0x4cb8 <__mulsf3_pse+0xa0>
    4c7c:	88 23       	and	r24, r24
    4c7e:	4a f0       	brmi	.+18     	; 0x4c92 <__mulsf3_pse+0x7a>
    4c80:	ee 0f       	add	r30, r30
    4c82:	ff 1f       	adc	r31, r31
    4c84:	bb 1f       	adc	r27, r27
    4c86:	66 1f       	adc	r22, r22
    4c88:	77 1f       	adc	r23, r23
    4c8a:	88 1f       	adc	r24, r24
    4c8c:	91 50       	subi	r25, 0x01	; 1
    4c8e:	50 40       	sbci	r21, 0x00	; 0
    4c90:	a9 f7       	brne	.-22     	; 0x4c7c <__mulsf3_pse+0x64>
    4c92:	9e 3f       	cpi	r25, 0xFE	; 254
    4c94:	51 05       	cpc	r21, r1
    4c96:	80 f0       	brcs	.+32     	; 0x4cb8 <__mulsf3_pse+0xa0>
    4c98:	0c 94 a0 25 	jmp	0x4b40	; 0x4b40 <__fp_inf>
    4c9c:	0c 94 eb 25 	jmp	0x4bd6	; 0x4bd6 <__fp_szero>
    4ca0:	5f 3f       	cpi	r21, 0xFF	; 255
    4ca2:	e4 f3       	brlt	.-8      	; 0x4c9c <__mulsf3_pse+0x84>
    4ca4:	98 3e       	cpi	r25, 0xE8	; 232
    4ca6:	d4 f3       	brlt	.-12     	; 0x4c9c <__mulsf3_pse+0x84>
    4ca8:	86 95       	lsr	r24
    4caa:	77 95       	ror	r23
    4cac:	67 95       	ror	r22
    4cae:	b7 95       	ror	r27
    4cb0:	f7 95       	ror	r31
    4cb2:	e7 95       	ror	r30
    4cb4:	9f 5f       	subi	r25, 0xFF	; 255
    4cb6:	c1 f7       	brne	.-16     	; 0x4ca8 <__mulsf3_pse+0x90>
    4cb8:	fe 2b       	or	r31, r30
    4cba:	88 0f       	add	r24, r24
    4cbc:	91 1d       	adc	r25, r1
    4cbe:	96 95       	lsr	r25
    4cc0:	87 95       	ror	r24
    4cc2:	97 f9       	bld	r25, 7
    4cc4:	08 95       	ret

00004cc6 <__udivmodhi4>:
    4cc6:	aa 1b       	sub	r26, r26
    4cc8:	bb 1b       	sub	r27, r27
    4cca:	51 e1       	ldi	r21, 0x11	; 17
    4ccc:	07 c0       	rjmp	.+14     	; 0x4cdc <__udivmodhi4_ep>

00004cce <__udivmodhi4_loop>:
    4cce:	aa 1f       	adc	r26, r26
    4cd0:	bb 1f       	adc	r27, r27
    4cd2:	a6 17       	cp	r26, r22
    4cd4:	b7 07       	cpc	r27, r23
    4cd6:	10 f0       	brcs	.+4      	; 0x4cdc <__udivmodhi4_ep>
    4cd8:	a6 1b       	sub	r26, r22
    4cda:	b7 0b       	sbc	r27, r23

00004cdc <__udivmodhi4_ep>:
    4cdc:	88 1f       	adc	r24, r24
    4cde:	99 1f       	adc	r25, r25
    4ce0:	5a 95       	dec	r21
    4ce2:	a9 f7       	brne	.-22     	; 0x4cce <__udivmodhi4_loop>
    4ce4:	80 95       	com	r24
    4ce6:	90 95       	com	r25
    4ce8:	bc 01       	movw	r22, r24
    4cea:	cd 01       	movw	r24, r26
    4cec:	08 95       	ret

00004cee <__divmodhi4>:
    4cee:	97 fb       	bst	r25, 7
    4cf0:	07 2e       	mov	r0, r23
    4cf2:	16 f4       	brtc	.+4      	; 0x4cf8 <__divmodhi4+0xa>
    4cf4:	00 94       	com	r0
    4cf6:	07 d0       	rcall	.+14     	; 0x4d06 <__divmodhi4_neg1>
    4cf8:	77 fd       	sbrc	r23, 7
    4cfa:	09 d0       	rcall	.+18     	; 0x4d0e <__divmodhi4_neg2>
    4cfc:	0e 94 63 26 	call	0x4cc6	; 0x4cc6 <__udivmodhi4>
    4d00:	07 fc       	sbrc	r0, 7
    4d02:	05 d0       	rcall	.+10     	; 0x4d0e <__divmodhi4_neg2>
    4d04:	3e f4       	brtc	.+14     	; 0x4d14 <__divmodhi4_exit>

00004d06 <__divmodhi4_neg1>:
    4d06:	90 95       	com	r25
    4d08:	81 95       	neg	r24
    4d0a:	9f 4f       	sbci	r25, 0xFF	; 255
    4d0c:	08 95       	ret

00004d0e <__divmodhi4_neg2>:
    4d0e:	70 95       	com	r23
    4d10:	61 95       	neg	r22
    4d12:	7f 4f       	sbci	r23, 0xFF	; 255

00004d14 <__divmodhi4_exit>:
    4d14:	08 95       	ret

00004d16 <__divmodsi4>:
    4d16:	05 2e       	mov	r0, r21
    4d18:	97 fb       	bst	r25, 7
    4d1a:	1e f4       	brtc	.+6      	; 0x4d22 <__divmodsi4+0xc>
    4d1c:	00 94       	com	r0
    4d1e:	0e 94 a2 26 	call	0x4d44	; 0x4d44 <__negsi2>
    4d22:	57 fd       	sbrc	r21, 7
    4d24:	07 d0       	rcall	.+14     	; 0x4d34 <__divmodsi4_neg2>
    4d26:	0e 94 b0 26 	call	0x4d60	; 0x4d60 <__udivmodsi4>
    4d2a:	07 fc       	sbrc	r0, 7
    4d2c:	03 d0       	rcall	.+6      	; 0x4d34 <__divmodsi4_neg2>
    4d2e:	4e f4       	brtc	.+18     	; 0x4d42 <__divmodsi4_exit>
    4d30:	0c 94 a2 26 	jmp	0x4d44	; 0x4d44 <__negsi2>

00004d34 <__divmodsi4_neg2>:
    4d34:	50 95       	com	r21
    4d36:	40 95       	com	r20
    4d38:	30 95       	com	r19
    4d3a:	21 95       	neg	r18
    4d3c:	3f 4f       	sbci	r19, 0xFF	; 255
    4d3e:	4f 4f       	sbci	r20, 0xFF	; 255
    4d40:	5f 4f       	sbci	r21, 0xFF	; 255

00004d42 <__divmodsi4_exit>:
    4d42:	08 95       	ret

00004d44 <__negsi2>:
    4d44:	90 95       	com	r25
    4d46:	80 95       	com	r24
    4d48:	70 95       	com	r23
    4d4a:	61 95       	neg	r22
    4d4c:	7f 4f       	sbci	r23, 0xFF	; 255
    4d4e:	8f 4f       	sbci	r24, 0xFF	; 255
    4d50:	9f 4f       	sbci	r25, 0xFF	; 255
    4d52:	08 95       	ret

00004d54 <__tablejump2__>:
    4d54:	ee 0f       	add	r30, r30
    4d56:	ff 1f       	adc	r31, r31
    4d58:	05 90       	lpm	r0, Z+
    4d5a:	f4 91       	lpm	r31, Z
    4d5c:	e0 2d       	mov	r30, r0
    4d5e:	09 94       	ijmp

00004d60 <__udivmodsi4>:
    4d60:	a1 e2       	ldi	r26, 0x21	; 33
    4d62:	1a 2e       	mov	r1, r26
    4d64:	aa 1b       	sub	r26, r26
    4d66:	bb 1b       	sub	r27, r27
    4d68:	fd 01       	movw	r30, r26
    4d6a:	0d c0       	rjmp	.+26     	; 0x4d86 <__udivmodsi4_ep>

00004d6c <__udivmodsi4_loop>:
    4d6c:	aa 1f       	adc	r26, r26
    4d6e:	bb 1f       	adc	r27, r27
    4d70:	ee 1f       	adc	r30, r30
    4d72:	ff 1f       	adc	r31, r31
    4d74:	a2 17       	cp	r26, r18
    4d76:	b3 07       	cpc	r27, r19
    4d78:	e4 07       	cpc	r30, r20
    4d7a:	f5 07       	cpc	r31, r21
    4d7c:	20 f0       	brcs	.+8      	; 0x4d86 <__udivmodsi4_ep>
    4d7e:	a2 1b       	sub	r26, r18
    4d80:	b3 0b       	sbc	r27, r19
    4d82:	e4 0b       	sbc	r30, r20
    4d84:	f5 0b       	sbc	r31, r21

00004d86 <__udivmodsi4_ep>:
    4d86:	66 1f       	adc	r22, r22
    4d88:	77 1f       	adc	r23, r23
    4d8a:	88 1f       	adc	r24, r24
    4d8c:	99 1f       	adc	r25, r25
    4d8e:	1a 94       	dec	r1
    4d90:	69 f7       	brne	.-38     	; 0x4d6c <__udivmodsi4_loop>
    4d92:	60 95       	com	r22
    4d94:	70 95       	com	r23
    4d96:	80 95       	com	r24
    4d98:	90 95       	com	r25
    4d9a:	9b 01       	movw	r18, r22
    4d9c:	ac 01       	movw	r20, r24
    4d9e:	bd 01       	movw	r22, r26
    4da0:	cf 01       	movw	r24, r30
    4da2:	08 95       	ret

00004da4 <dtostrf>:
    4da4:	ef 92       	push	r14
    4da6:	0f 93       	push	r16
    4da8:	1f 93       	push	r17
    4daa:	cf 93       	push	r28
    4dac:	df 93       	push	r29
    4dae:	e8 01       	movw	r28, r16
    4db0:	47 fd       	sbrc	r20, 7
    4db2:	02 c0       	rjmp	.+4      	; 0x4db8 <dtostrf+0x14>
    4db4:	34 e0       	ldi	r19, 0x04	; 4
    4db6:	01 c0       	rjmp	.+2      	; 0x4dba <dtostrf+0x16>
    4db8:	34 e1       	ldi	r19, 0x14	; 20
    4dba:	e4 2f       	mov	r30, r20
    4dbc:	44 0f       	add	r20, r20
    4dbe:	ff 0b       	sbc	r31, r31
    4dc0:	f7 ff       	sbrs	r31, 7
    4dc2:	03 c0       	rjmp	.+6      	; 0x4dca <dtostrf+0x26>
    4dc4:	f1 95       	neg	r31
    4dc6:	e1 95       	neg	r30
    4dc8:	f1 09       	sbc	r31, r1
    4dca:	e3 2e       	mov	r14, r19
    4dcc:	02 2f       	mov	r16, r18
    4dce:	2e 2f       	mov	r18, r30
    4dd0:	ae 01       	movw	r20, r28
    4dd2:	0e 94 f0 28 	call	0x51e0	; 0x51e0 <dtoa_prf>
    4dd6:	ce 01       	movw	r24, r28
    4dd8:	df 91       	pop	r29
    4dda:	cf 91       	pop	r28
    4ddc:	1f 91       	pop	r17
    4dde:	0f 91       	pop	r16
    4de0:	ef 90       	pop	r14
    4de2:	08 95       	ret

00004de4 <memcpy>:
    4de4:	fb 01       	movw	r30, r22
    4de6:	dc 01       	movw	r26, r24
    4de8:	02 c0       	rjmp	.+4      	; 0x4dee <memcpy+0xa>
    4dea:	01 90       	ld	r0, Z+
    4dec:	0d 92       	st	X+, r0
    4dee:	41 50       	subi	r20, 0x01	; 1
    4df0:	50 40       	sbci	r21, 0x00	; 0
    4df2:	d8 f7       	brcc	.-10     	; 0x4dea <memcpy+0x6>
    4df4:	08 95       	ret

00004df6 <sprintf_P>:
    4df6:	ae e0       	ldi	r26, 0x0E	; 14
    4df8:	b0 e0       	ldi	r27, 0x00	; 0
    4dfa:	e1 e0       	ldi	r30, 0x01	; 1
    4dfc:	f7 e2       	ldi	r31, 0x27	; 39
    4dfe:	0c 94 10 2c 	jmp	0x5820	; 0x5820 <__prologue_saves__+0x1c>
    4e02:	0d 89       	ldd	r16, Y+21	; 0x15
    4e04:	1e 89       	ldd	r17, Y+22	; 0x16
    4e06:	8e e0       	ldi	r24, 0x0E	; 14
    4e08:	8c 83       	std	Y+4, r24	; 0x04
    4e0a:	1a 83       	std	Y+2, r17	; 0x02
    4e0c:	09 83       	std	Y+1, r16	; 0x01
    4e0e:	8f ef       	ldi	r24, 0xFF	; 255
    4e10:	9f e7       	ldi	r25, 0x7F	; 127
    4e12:	9e 83       	std	Y+6, r25	; 0x06
    4e14:	8d 83       	std	Y+5, r24	; 0x05
    4e16:	ae 01       	movw	r20, r28
    4e18:	47 5e       	subi	r20, 0xE7	; 231
    4e1a:	5f 4f       	sbci	r21, 0xFF	; 255
    4e1c:	6f 89       	ldd	r22, Y+23	; 0x17
    4e1e:	78 8d       	ldd	r23, Y+24	; 0x18
    4e20:	ce 01       	movw	r24, r28
    4e22:	01 96       	adiw	r24, 0x01	; 1
    4e24:	0e 94 1e 27 	call	0x4e3c	; 0x4e3c <vfprintf>
    4e28:	2f 81       	ldd	r18, Y+7	; 0x07
    4e2a:	38 85       	ldd	r19, Y+8	; 0x08
    4e2c:	f8 01       	movw	r30, r16
    4e2e:	e2 0f       	add	r30, r18
    4e30:	f3 1f       	adc	r31, r19
    4e32:	10 82       	st	Z, r1
    4e34:	2e 96       	adiw	r28, 0x0e	; 14
    4e36:	e4 e0       	ldi	r30, 0x04	; 4
    4e38:	0c 94 2c 2c 	jmp	0x5858	; 0x5858 <__epilogue_restores__+0x1c>

00004e3c <vfprintf>:
    4e3c:	ac e0       	ldi	r26, 0x0C	; 12
    4e3e:	b0 e0       	ldi	r27, 0x00	; 0
    4e40:	e4 e2       	ldi	r30, 0x24	; 36
    4e42:	f7 e2       	ldi	r31, 0x27	; 39
    4e44:	0c 94 02 2c 	jmp	0x5804	; 0x5804 <__prologue_saves__>
    4e48:	7c 01       	movw	r14, r24
    4e4a:	6b 01       	movw	r12, r22
    4e4c:	8a 01       	movw	r16, r20
    4e4e:	fc 01       	movw	r30, r24
    4e50:	17 82       	std	Z+7, r1	; 0x07
    4e52:	16 82       	std	Z+6, r1	; 0x06
    4e54:	83 81       	ldd	r24, Z+3	; 0x03
    4e56:	81 ff       	sbrs	r24, 1
    4e58:	bd c1       	rjmp	.+890    	; 0x51d4 <vfprintf+0x398>
    4e5a:	ce 01       	movw	r24, r28
    4e5c:	01 96       	adiw	r24, 0x01	; 1
    4e5e:	4c 01       	movw	r8, r24
    4e60:	f7 01       	movw	r30, r14
    4e62:	93 81       	ldd	r25, Z+3	; 0x03
    4e64:	f6 01       	movw	r30, r12
    4e66:	93 fd       	sbrc	r25, 3
    4e68:	85 91       	lpm	r24, Z+
    4e6a:	93 ff       	sbrs	r25, 3
    4e6c:	81 91       	ld	r24, Z+
    4e6e:	6f 01       	movw	r12, r30
    4e70:	88 23       	and	r24, r24
    4e72:	09 f4       	brne	.+2      	; 0x4e76 <vfprintf+0x3a>
    4e74:	ab c1       	rjmp	.+854    	; 0x51cc <vfprintf+0x390>
    4e76:	85 32       	cpi	r24, 0x25	; 37
    4e78:	39 f4       	brne	.+14     	; 0x4e88 <vfprintf+0x4c>
    4e7a:	93 fd       	sbrc	r25, 3
    4e7c:	85 91       	lpm	r24, Z+
    4e7e:	93 ff       	sbrs	r25, 3
    4e80:	81 91       	ld	r24, Z+
    4e82:	6f 01       	movw	r12, r30
    4e84:	85 32       	cpi	r24, 0x25	; 37
    4e86:	29 f4       	brne	.+10     	; 0x4e92 <vfprintf+0x56>
    4e88:	b7 01       	movw	r22, r14
    4e8a:	90 e0       	ldi	r25, 0x00	; 0
    4e8c:	0e 94 6c 2b 	call	0x56d8	; 0x56d8 <fputc>
    4e90:	e7 cf       	rjmp	.-50     	; 0x4e60 <vfprintf+0x24>
    4e92:	51 2c       	mov	r5, r1
    4e94:	31 2c       	mov	r3, r1
    4e96:	20 e0       	ldi	r18, 0x00	; 0
    4e98:	20 32       	cpi	r18, 0x20	; 32
    4e9a:	a0 f4       	brcc	.+40     	; 0x4ec4 <vfprintf+0x88>
    4e9c:	8b 32       	cpi	r24, 0x2B	; 43
    4e9e:	69 f0       	breq	.+26     	; 0x4eba <vfprintf+0x7e>
    4ea0:	30 f4       	brcc	.+12     	; 0x4eae <vfprintf+0x72>
    4ea2:	80 32       	cpi	r24, 0x20	; 32
    4ea4:	59 f0       	breq	.+22     	; 0x4ebc <vfprintf+0x80>
    4ea6:	83 32       	cpi	r24, 0x23	; 35
    4ea8:	69 f4       	brne	.+26     	; 0x4ec4 <vfprintf+0x88>
    4eaa:	20 61       	ori	r18, 0x10	; 16
    4eac:	2c c0       	rjmp	.+88     	; 0x4f06 <vfprintf+0xca>
    4eae:	8d 32       	cpi	r24, 0x2D	; 45
    4eb0:	39 f0       	breq	.+14     	; 0x4ec0 <vfprintf+0x84>
    4eb2:	80 33       	cpi	r24, 0x30	; 48
    4eb4:	39 f4       	brne	.+14     	; 0x4ec4 <vfprintf+0x88>
    4eb6:	21 60       	ori	r18, 0x01	; 1
    4eb8:	26 c0       	rjmp	.+76     	; 0x4f06 <vfprintf+0xca>
    4eba:	22 60       	ori	r18, 0x02	; 2
    4ebc:	24 60       	ori	r18, 0x04	; 4
    4ebe:	23 c0       	rjmp	.+70     	; 0x4f06 <vfprintf+0xca>
    4ec0:	28 60       	ori	r18, 0x08	; 8
    4ec2:	21 c0       	rjmp	.+66     	; 0x4f06 <vfprintf+0xca>
    4ec4:	27 fd       	sbrc	r18, 7
    4ec6:	27 c0       	rjmp	.+78     	; 0x4f16 <vfprintf+0xda>
    4ec8:	30 ed       	ldi	r19, 0xD0	; 208
    4eca:	38 0f       	add	r19, r24
    4ecc:	3a 30       	cpi	r19, 0x0A	; 10
    4ece:	78 f4       	brcc	.+30     	; 0x4eee <vfprintf+0xb2>
    4ed0:	26 ff       	sbrs	r18, 6
    4ed2:	06 c0       	rjmp	.+12     	; 0x4ee0 <vfprintf+0xa4>
    4ed4:	fa e0       	ldi	r31, 0x0A	; 10
    4ed6:	5f 9e       	mul	r5, r31
    4ed8:	30 0d       	add	r19, r0
    4eda:	11 24       	eor	r1, r1
    4edc:	53 2e       	mov	r5, r19
    4ede:	13 c0       	rjmp	.+38     	; 0x4f06 <vfprintf+0xca>
    4ee0:	8a e0       	ldi	r24, 0x0A	; 10
    4ee2:	38 9e       	mul	r3, r24
    4ee4:	30 0d       	add	r19, r0
    4ee6:	11 24       	eor	r1, r1
    4ee8:	33 2e       	mov	r3, r19
    4eea:	20 62       	ori	r18, 0x20	; 32
    4eec:	0c c0       	rjmp	.+24     	; 0x4f06 <vfprintf+0xca>
    4eee:	8e 32       	cpi	r24, 0x2E	; 46
    4ef0:	21 f4       	brne	.+8      	; 0x4efa <vfprintf+0xbe>
    4ef2:	26 fd       	sbrc	r18, 6
    4ef4:	6b c1       	rjmp	.+726    	; 0x51cc <vfprintf+0x390>
    4ef6:	20 64       	ori	r18, 0x40	; 64
    4ef8:	06 c0       	rjmp	.+12     	; 0x4f06 <vfprintf+0xca>
    4efa:	8c 36       	cpi	r24, 0x6C	; 108
    4efc:	11 f4       	brne	.+4      	; 0x4f02 <vfprintf+0xc6>
    4efe:	20 68       	ori	r18, 0x80	; 128
    4f00:	02 c0       	rjmp	.+4      	; 0x4f06 <vfprintf+0xca>
    4f02:	88 36       	cpi	r24, 0x68	; 104
    4f04:	41 f4       	brne	.+16     	; 0x4f16 <vfprintf+0xda>
    4f06:	f6 01       	movw	r30, r12
    4f08:	93 fd       	sbrc	r25, 3
    4f0a:	85 91       	lpm	r24, Z+
    4f0c:	93 ff       	sbrs	r25, 3
    4f0e:	81 91       	ld	r24, Z+
    4f10:	6f 01       	movw	r12, r30
    4f12:	81 11       	cpse	r24, r1
    4f14:	c1 cf       	rjmp	.-126    	; 0x4e98 <vfprintf+0x5c>
    4f16:	98 2f       	mov	r25, r24
    4f18:	9f 7d       	andi	r25, 0xDF	; 223
    4f1a:	95 54       	subi	r25, 0x45	; 69
    4f1c:	93 30       	cpi	r25, 0x03	; 3
    4f1e:	28 f4       	brcc	.+10     	; 0x4f2a <vfprintf+0xee>
    4f20:	0c 5f       	subi	r16, 0xFC	; 252
    4f22:	1f 4f       	sbci	r17, 0xFF	; 255
    4f24:	ff e3       	ldi	r31, 0x3F	; 63
    4f26:	f9 83       	std	Y+1, r31	; 0x01
    4f28:	0d c0       	rjmp	.+26     	; 0x4f44 <vfprintf+0x108>
    4f2a:	83 36       	cpi	r24, 0x63	; 99
    4f2c:	31 f0       	breq	.+12     	; 0x4f3a <vfprintf+0xfe>
    4f2e:	83 37       	cpi	r24, 0x73	; 115
    4f30:	71 f0       	breq	.+28     	; 0x4f4e <vfprintf+0x112>
    4f32:	83 35       	cpi	r24, 0x53	; 83
    4f34:	09 f0       	breq	.+2      	; 0x4f38 <vfprintf+0xfc>
    4f36:	5b c0       	rjmp	.+182    	; 0x4fee <vfprintf+0x1b2>
    4f38:	22 c0       	rjmp	.+68     	; 0x4f7e <vfprintf+0x142>
    4f3a:	f8 01       	movw	r30, r16
    4f3c:	80 81       	ld	r24, Z
    4f3e:	89 83       	std	Y+1, r24	; 0x01
    4f40:	0e 5f       	subi	r16, 0xFE	; 254
    4f42:	1f 4f       	sbci	r17, 0xFF	; 255
    4f44:	44 24       	eor	r4, r4
    4f46:	43 94       	inc	r4
    4f48:	51 2c       	mov	r5, r1
    4f4a:	54 01       	movw	r10, r8
    4f4c:	15 c0       	rjmp	.+42     	; 0x4f78 <vfprintf+0x13c>
    4f4e:	38 01       	movw	r6, r16
    4f50:	f2 e0       	ldi	r31, 0x02	; 2
    4f52:	6f 0e       	add	r6, r31
    4f54:	71 1c       	adc	r7, r1
    4f56:	f8 01       	movw	r30, r16
    4f58:	a0 80       	ld	r10, Z
    4f5a:	b1 80       	ldd	r11, Z+1	; 0x01
    4f5c:	26 ff       	sbrs	r18, 6
    4f5e:	03 c0       	rjmp	.+6      	; 0x4f66 <vfprintf+0x12a>
    4f60:	65 2d       	mov	r22, r5
    4f62:	70 e0       	ldi	r23, 0x00	; 0
    4f64:	02 c0       	rjmp	.+4      	; 0x4f6a <vfprintf+0x12e>
    4f66:	6f ef       	ldi	r22, 0xFF	; 255
    4f68:	7f ef       	ldi	r23, 0xFF	; 255
    4f6a:	c5 01       	movw	r24, r10
    4f6c:	2c 87       	std	Y+12, r18	; 0x0c
    4f6e:	0e 94 61 2b 	call	0x56c2	; 0x56c2 <strnlen>
    4f72:	2c 01       	movw	r4, r24
    4f74:	83 01       	movw	r16, r6
    4f76:	2c 85       	ldd	r18, Y+12	; 0x0c
    4f78:	2f 77       	andi	r18, 0x7F	; 127
    4f7a:	22 2e       	mov	r2, r18
    4f7c:	17 c0       	rjmp	.+46     	; 0x4fac <vfprintf+0x170>
    4f7e:	38 01       	movw	r6, r16
    4f80:	f2 e0       	ldi	r31, 0x02	; 2
    4f82:	6f 0e       	add	r6, r31
    4f84:	71 1c       	adc	r7, r1
    4f86:	f8 01       	movw	r30, r16
    4f88:	a0 80       	ld	r10, Z
    4f8a:	b1 80       	ldd	r11, Z+1	; 0x01
    4f8c:	26 ff       	sbrs	r18, 6
    4f8e:	03 c0       	rjmp	.+6      	; 0x4f96 <vfprintf+0x15a>
    4f90:	65 2d       	mov	r22, r5
    4f92:	70 e0       	ldi	r23, 0x00	; 0
    4f94:	02 c0       	rjmp	.+4      	; 0x4f9a <vfprintf+0x15e>
    4f96:	6f ef       	ldi	r22, 0xFF	; 255
    4f98:	7f ef       	ldi	r23, 0xFF	; 255
    4f9a:	c5 01       	movw	r24, r10
    4f9c:	2c 87       	std	Y+12, r18	; 0x0c
    4f9e:	0e 94 56 2b 	call	0x56ac	; 0x56ac <strnlen_P>
    4fa2:	2c 01       	movw	r4, r24
    4fa4:	2c 85       	ldd	r18, Y+12	; 0x0c
    4fa6:	20 68       	ori	r18, 0x80	; 128
    4fa8:	22 2e       	mov	r2, r18
    4faa:	83 01       	movw	r16, r6
    4fac:	23 fc       	sbrc	r2, 3
    4fae:	1b c0       	rjmp	.+54     	; 0x4fe6 <vfprintf+0x1aa>
    4fb0:	83 2d       	mov	r24, r3
    4fb2:	90 e0       	ldi	r25, 0x00	; 0
    4fb4:	48 16       	cp	r4, r24
    4fb6:	59 06       	cpc	r5, r25
    4fb8:	b0 f4       	brcc	.+44     	; 0x4fe6 <vfprintf+0x1aa>
    4fba:	b7 01       	movw	r22, r14
    4fbc:	80 e2       	ldi	r24, 0x20	; 32
    4fbe:	90 e0       	ldi	r25, 0x00	; 0
    4fc0:	0e 94 6c 2b 	call	0x56d8	; 0x56d8 <fputc>
    4fc4:	3a 94       	dec	r3
    4fc6:	f4 cf       	rjmp	.-24     	; 0x4fb0 <vfprintf+0x174>
    4fc8:	f5 01       	movw	r30, r10
    4fca:	27 fc       	sbrc	r2, 7
    4fcc:	85 91       	lpm	r24, Z+
    4fce:	27 fe       	sbrs	r2, 7
    4fd0:	81 91       	ld	r24, Z+
    4fd2:	5f 01       	movw	r10, r30
    4fd4:	b7 01       	movw	r22, r14
    4fd6:	90 e0       	ldi	r25, 0x00	; 0
    4fd8:	0e 94 6c 2b 	call	0x56d8	; 0x56d8 <fputc>
    4fdc:	31 10       	cpse	r3, r1
    4fde:	3a 94       	dec	r3
    4fe0:	f1 e0       	ldi	r31, 0x01	; 1
    4fe2:	4f 1a       	sub	r4, r31
    4fe4:	51 08       	sbc	r5, r1
    4fe6:	41 14       	cp	r4, r1
    4fe8:	51 04       	cpc	r5, r1
    4fea:	71 f7       	brne	.-36     	; 0x4fc8 <vfprintf+0x18c>
    4fec:	e5 c0       	rjmp	.+458    	; 0x51b8 <vfprintf+0x37c>
    4fee:	84 36       	cpi	r24, 0x64	; 100
    4ff0:	11 f0       	breq	.+4      	; 0x4ff6 <vfprintf+0x1ba>
    4ff2:	89 36       	cpi	r24, 0x69	; 105
    4ff4:	39 f5       	brne	.+78     	; 0x5044 <vfprintf+0x208>
    4ff6:	f8 01       	movw	r30, r16
    4ff8:	27 ff       	sbrs	r18, 7
    4ffa:	07 c0       	rjmp	.+14     	; 0x500a <vfprintf+0x1ce>
    4ffc:	60 81       	ld	r22, Z
    4ffe:	71 81       	ldd	r23, Z+1	; 0x01
    5000:	82 81       	ldd	r24, Z+2	; 0x02
    5002:	93 81       	ldd	r25, Z+3	; 0x03
    5004:	0c 5f       	subi	r16, 0xFC	; 252
    5006:	1f 4f       	sbci	r17, 0xFF	; 255
    5008:	08 c0       	rjmp	.+16     	; 0x501a <vfprintf+0x1de>
    500a:	60 81       	ld	r22, Z
    500c:	71 81       	ldd	r23, Z+1	; 0x01
    500e:	07 2e       	mov	r0, r23
    5010:	00 0c       	add	r0, r0
    5012:	88 0b       	sbc	r24, r24
    5014:	99 0b       	sbc	r25, r25
    5016:	0e 5f       	subi	r16, 0xFE	; 254
    5018:	1f 4f       	sbci	r17, 0xFF	; 255
    501a:	2f 76       	andi	r18, 0x6F	; 111
    501c:	72 2e       	mov	r7, r18
    501e:	97 ff       	sbrs	r25, 7
    5020:	09 c0       	rjmp	.+18     	; 0x5034 <vfprintf+0x1f8>
    5022:	90 95       	com	r25
    5024:	80 95       	com	r24
    5026:	70 95       	com	r23
    5028:	61 95       	neg	r22
    502a:	7f 4f       	sbci	r23, 0xFF	; 255
    502c:	8f 4f       	sbci	r24, 0xFF	; 255
    502e:	9f 4f       	sbci	r25, 0xFF	; 255
    5030:	20 68       	ori	r18, 0x80	; 128
    5032:	72 2e       	mov	r7, r18
    5034:	2a e0       	ldi	r18, 0x0A	; 10
    5036:	30 e0       	ldi	r19, 0x00	; 0
    5038:	a4 01       	movw	r20, r8
    503a:	0e 94 a4 2b 	call	0x5748	; 0x5748 <__ultoa_invert>
    503e:	a8 2e       	mov	r10, r24
    5040:	a8 18       	sub	r10, r8
    5042:	44 c0       	rjmp	.+136    	; 0x50cc <vfprintf+0x290>
    5044:	85 37       	cpi	r24, 0x75	; 117
    5046:	29 f4       	brne	.+10     	; 0x5052 <vfprintf+0x216>
    5048:	2f 7e       	andi	r18, 0xEF	; 239
    504a:	b2 2e       	mov	r11, r18
    504c:	2a e0       	ldi	r18, 0x0A	; 10
    504e:	30 e0       	ldi	r19, 0x00	; 0
    5050:	25 c0       	rjmp	.+74     	; 0x509c <vfprintf+0x260>
    5052:	f2 2f       	mov	r31, r18
    5054:	f9 7f       	andi	r31, 0xF9	; 249
    5056:	bf 2e       	mov	r11, r31
    5058:	8f 36       	cpi	r24, 0x6F	; 111
    505a:	c1 f0       	breq	.+48     	; 0x508c <vfprintf+0x250>
    505c:	18 f4       	brcc	.+6      	; 0x5064 <vfprintf+0x228>
    505e:	88 35       	cpi	r24, 0x58	; 88
    5060:	79 f0       	breq	.+30     	; 0x5080 <vfprintf+0x244>
    5062:	b4 c0       	rjmp	.+360    	; 0x51cc <vfprintf+0x390>
    5064:	80 37       	cpi	r24, 0x70	; 112
    5066:	19 f0       	breq	.+6      	; 0x506e <vfprintf+0x232>
    5068:	88 37       	cpi	r24, 0x78	; 120
    506a:	21 f0       	breq	.+8      	; 0x5074 <vfprintf+0x238>
    506c:	af c0       	rjmp	.+350    	; 0x51cc <vfprintf+0x390>
    506e:	2f 2f       	mov	r18, r31
    5070:	20 61       	ori	r18, 0x10	; 16
    5072:	b2 2e       	mov	r11, r18
    5074:	b4 fe       	sbrs	r11, 4
    5076:	0d c0       	rjmp	.+26     	; 0x5092 <vfprintf+0x256>
    5078:	8b 2d       	mov	r24, r11
    507a:	84 60       	ori	r24, 0x04	; 4
    507c:	b8 2e       	mov	r11, r24
    507e:	09 c0       	rjmp	.+18     	; 0x5092 <vfprintf+0x256>
    5080:	24 ff       	sbrs	r18, 4
    5082:	0a c0       	rjmp	.+20     	; 0x5098 <vfprintf+0x25c>
    5084:	9f 2f       	mov	r25, r31
    5086:	96 60       	ori	r25, 0x06	; 6
    5088:	b9 2e       	mov	r11, r25
    508a:	06 c0       	rjmp	.+12     	; 0x5098 <vfprintf+0x25c>
    508c:	28 e0       	ldi	r18, 0x08	; 8
    508e:	30 e0       	ldi	r19, 0x00	; 0
    5090:	05 c0       	rjmp	.+10     	; 0x509c <vfprintf+0x260>
    5092:	20 e1       	ldi	r18, 0x10	; 16
    5094:	30 e0       	ldi	r19, 0x00	; 0
    5096:	02 c0       	rjmp	.+4      	; 0x509c <vfprintf+0x260>
    5098:	20 e1       	ldi	r18, 0x10	; 16
    509a:	32 e0       	ldi	r19, 0x02	; 2
    509c:	f8 01       	movw	r30, r16
    509e:	b7 fe       	sbrs	r11, 7
    50a0:	07 c0       	rjmp	.+14     	; 0x50b0 <vfprintf+0x274>
    50a2:	60 81       	ld	r22, Z
    50a4:	71 81       	ldd	r23, Z+1	; 0x01
    50a6:	82 81       	ldd	r24, Z+2	; 0x02
    50a8:	93 81       	ldd	r25, Z+3	; 0x03
    50aa:	0c 5f       	subi	r16, 0xFC	; 252
    50ac:	1f 4f       	sbci	r17, 0xFF	; 255
    50ae:	06 c0       	rjmp	.+12     	; 0x50bc <vfprintf+0x280>
    50b0:	60 81       	ld	r22, Z
    50b2:	71 81       	ldd	r23, Z+1	; 0x01
    50b4:	80 e0       	ldi	r24, 0x00	; 0
    50b6:	90 e0       	ldi	r25, 0x00	; 0
    50b8:	0e 5f       	subi	r16, 0xFE	; 254
    50ba:	1f 4f       	sbci	r17, 0xFF	; 255
    50bc:	a4 01       	movw	r20, r8
    50be:	0e 94 a4 2b 	call	0x5748	; 0x5748 <__ultoa_invert>
    50c2:	a8 2e       	mov	r10, r24
    50c4:	a8 18       	sub	r10, r8
    50c6:	fb 2d       	mov	r31, r11
    50c8:	ff 77       	andi	r31, 0x7F	; 127
    50ca:	7f 2e       	mov	r7, r31
    50cc:	76 fe       	sbrs	r7, 6
    50ce:	0b c0       	rjmp	.+22     	; 0x50e6 <vfprintf+0x2aa>
    50d0:	37 2d       	mov	r19, r7
    50d2:	3e 7f       	andi	r19, 0xFE	; 254
    50d4:	a5 14       	cp	r10, r5
    50d6:	50 f4       	brcc	.+20     	; 0x50ec <vfprintf+0x2b0>
    50d8:	74 fe       	sbrs	r7, 4
    50da:	0a c0       	rjmp	.+20     	; 0x50f0 <vfprintf+0x2b4>
    50dc:	72 fc       	sbrc	r7, 2
    50de:	08 c0       	rjmp	.+16     	; 0x50f0 <vfprintf+0x2b4>
    50e0:	37 2d       	mov	r19, r7
    50e2:	3e 7e       	andi	r19, 0xEE	; 238
    50e4:	05 c0       	rjmp	.+10     	; 0x50f0 <vfprintf+0x2b4>
    50e6:	ba 2c       	mov	r11, r10
    50e8:	37 2d       	mov	r19, r7
    50ea:	03 c0       	rjmp	.+6      	; 0x50f2 <vfprintf+0x2b6>
    50ec:	ba 2c       	mov	r11, r10
    50ee:	01 c0       	rjmp	.+2      	; 0x50f2 <vfprintf+0x2b6>
    50f0:	b5 2c       	mov	r11, r5
    50f2:	34 ff       	sbrs	r19, 4
    50f4:	0d c0       	rjmp	.+26     	; 0x5110 <vfprintf+0x2d4>
    50f6:	fe 01       	movw	r30, r28
    50f8:	ea 0d       	add	r30, r10
    50fa:	f1 1d       	adc	r31, r1
    50fc:	80 81       	ld	r24, Z
    50fe:	80 33       	cpi	r24, 0x30	; 48
    5100:	11 f4       	brne	.+4      	; 0x5106 <vfprintf+0x2ca>
    5102:	39 7e       	andi	r19, 0xE9	; 233
    5104:	09 c0       	rjmp	.+18     	; 0x5118 <vfprintf+0x2dc>
    5106:	32 ff       	sbrs	r19, 2
    5108:	06 c0       	rjmp	.+12     	; 0x5116 <vfprintf+0x2da>
    510a:	b3 94       	inc	r11
    510c:	b3 94       	inc	r11
    510e:	04 c0       	rjmp	.+8      	; 0x5118 <vfprintf+0x2dc>
    5110:	83 2f       	mov	r24, r19
    5112:	86 78       	andi	r24, 0x86	; 134
    5114:	09 f0       	breq	.+2      	; 0x5118 <vfprintf+0x2dc>
    5116:	b3 94       	inc	r11
    5118:	33 fd       	sbrc	r19, 3
    511a:	13 c0       	rjmp	.+38     	; 0x5142 <vfprintf+0x306>
    511c:	30 ff       	sbrs	r19, 0
    511e:	06 c0       	rjmp	.+12     	; 0x512c <vfprintf+0x2f0>
    5120:	5a 2c       	mov	r5, r10
    5122:	b3 14       	cp	r11, r3
    5124:	18 f4       	brcc	.+6      	; 0x512c <vfprintf+0x2f0>
    5126:	53 0c       	add	r5, r3
    5128:	5b 18       	sub	r5, r11
    512a:	b3 2c       	mov	r11, r3
    512c:	b3 14       	cp	r11, r3
    512e:	68 f4       	brcc	.+26     	; 0x514a <vfprintf+0x30e>
    5130:	b7 01       	movw	r22, r14
    5132:	80 e2       	ldi	r24, 0x20	; 32
    5134:	90 e0       	ldi	r25, 0x00	; 0
    5136:	3c 87       	std	Y+12, r19	; 0x0c
    5138:	0e 94 6c 2b 	call	0x56d8	; 0x56d8 <fputc>
    513c:	b3 94       	inc	r11
    513e:	3c 85       	ldd	r19, Y+12	; 0x0c
    5140:	f5 cf       	rjmp	.-22     	; 0x512c <vfprintf+0x2f0>
    5142:	b3 14       	cp	r11, r3
    5144:	10 f4       	brcc	.+4      	; 0x514a <vfprintf+0x30e>
    5146:	3b 18       	sub	r3, r11
    5148:	01 c0       	rjmp	.+2      	; 0x514c <vfprintf+0x310>
    514a:	31 2c       	mov	r3, r1
    514c:	34 ff       	sbrs	r19, 4
    514e:	12 c0       	rjmp	.+36     	; 0x5174 <vfprintf+0x338>
    5150:	b7 01       	movw	r22, r14
    5152:	80 e3       	ldi	r24, 0x30	; 48
    5154:	90 e0       	ldi	r25, 0x00	; 0
    5156:	3c 87       	std	Y+12, r19	; 0x0c
    5158:	0e 94 6c 2b 	call	0x56d8	; 0x56d8 <fputc>
    515c:	3c 85       	ldd	r19, Y+12	; 0x0c
    515e:	32 ff       	sbrs	r19, 2
    5160:	17 c0       	rjmp	.+46     	; 0x5190 <vfprintf+0x354>
    5162:	31 fd       	sbrc	r19, 1
    5164:	03 c0       	rjmp	.+6      	; 0x516c <vfprintf+0x330>
    5166:	88 e7       	ldi	r24, 0x78	; 120
    5168:	90 e0       	ldi	r25, 0x00	; 0
    516a:	02 c0       	rjmp	.+4      	; 0x5170 <vfprintf+0x334>
    516c:	88 e5       	ldi	r24, 0x58	; 88
    516e:	90 e0       	ldi	r25, 0x00	; 0
    5170:	b7 01       	movw	r22, r14
    5172:	0c c0       	rjmp	.+24     	; 0x518c <vfprintf+0x350>
    5174:	83 2f       	mov	r24, r19
    5176:	86 78       	andi	r24, 0x86	; 134
    5178:	59 f0       	breq	.+22     	; 0x5190 <vfprintf+0x354>
    517a:	31 ff       	sbrs	r19, 1
    517c:	02 c0       	rjmp	.+4      	; 0x5182 <vfprintf+0x346>
    517e:	8b e2       	ldi	r24, 0x2B	; 43
    5180:	01 c0       	rjmp	.+2      	; 0x5184 <vfprintf+0x348>
    5182:	80 e2       	ldi	r24, 0x20	; 32
    5184:	37 fd       	sbrc	r19, 7
    5186:	8d e2       	ldi	r24, 0x2D	; 45
    5188:	b7 01       	movw	r22, r14
    518a:	90 e0       	ldi	r25, 0x00	; 0
    518c:	0e 94 6c 2b 	call	0x56d8	; 0x56d8 <fputc>
    5190:	a5 14       	cp	r10, r5
    5192:	38 f4       	brcc	.+14     	; 0x51a2 <vfprintf+0x366>
    5194:	b7 01       	movw	r22, r14
    5196:	80 e3       	ldi	r24, 0x30	; 48
    5198:	90 e0       	ldi	r25, 0x00	; 0
    519a:	0e 94 6c 2b 	call	0x56d8	; 0x56d8 <fputc>
    519e:	5a 94       	dec	r5
    51a0:	f7 cf       	rjmp	.-18     	; 0x5190 <vfprintf+0x354>
    51a2:	aa 94       	dec	r10
    51a4:	f4 01       	movw	r30, r8
    51a6:	ea 0d       	add	r30, r10
    51a8:	f1 1d       	adc	r31, r1
    51aa:	80 81       	ld	r24, Z
    51ac:	b7 01       	movw	r22, r14
    51ae:	90 e0       	ldi	r25, 0x00	; 0
    51b0:	0e 94 6c 2b 	call	0x56d8	; 0x56d8 <fputc>
    51b4:	a1 10       	cpse	r10, r1
    51b6:	f5 cf       	rjmp	.-22     	; 0x51a2 <vfprintf+0x366>
    51b8:	33 20       	and	r3, r3
    51ba:	09 f4       	brne	.+2      	; 0x51be <vfprintf+0x382>
    51bc:	51 ce       	rjmp	.-862    	; 0x4e60 <vfprintf+0x24>
    51be:	b7 01       	movw	r22, r14
    51c0:	80 e2       	ldi	r24, 0x20	; 32
    51c2:	90 e0       	ldi	r25, 0x00	; 0
    51c4:	0e 94 6c 2b 	call	0x56d8	; 0x56d8 <fputc>
    51c8:	3a 94       	dec	r3
    51ca:	f6 cf       	rjmp	.-20     	; 0x51b8 <vfprintf+0x37c>
    51cc:	f7 01       	movw	r30, r14
    51ce:	86 81       	ldd	r24, Z+6	; 0x06
    51d0:	97 81       	ldd	r25, Z+7	; 0x07
    51d2:	02 c0       	rjmp	.+4      	; 0x51d8 <vfprintf+0x39c>
    51d4:	8f ef       	ldi	r24, 0xFF	; 255
    51d6:	9f ef       	ldi	r25, 0xFF	; 255
    51d8:	2c 96       	adiw	r28, 0x0c	; 12
    51da:	e2 e1       	ldi	r30, 0x12	; 18
    51dc:	0c 94 1e 2c 	jmp	0x583c	; 0x583c <__epilogue_restores__>

000051e0 <dtoa_prf>:
    51e0:	4f 92       	push	r4
    51e2:	5f 92       	push	r5
    51e4:	6f 92       	push	r6
    51e6:	7f 92       	push	r7
    51e8:	9f 92       	push	r9
    51ea:	af 92       	push	r10
    51ec:	bf 92       	push	r11
    51ee:	cf 92       	push	r12
    51f0:	df 92       	push	r13
    51f2:	ef 92       	push	r14
    51f4:	ff 92       	push	r15
    51f6:	0f 93       	push	r16
    51f8:	1f 93       	push	r17
    51fa:	cf 93       	push	r28
    51fc:	df 93       	push	r29
    51fe:	cd b7       	in	r28, 0x3d	; 61
    5200:	de b7       	in	r29, 0x3e	; 62
    5202:	29 97       	sbiw	r28, 0x09	; 9
    5204:	0f b6       	in	r0, 0x3f	; 63
    5206:	f8 94       	cli
    5208:	de bf       	out	0x3e, r29	; 62
    520a:	0f be       	out	0x3f, r0	; 63
    520c:	cd bf       	out	0x3d, r28	; 61
    520e:	6a 01       	movw	r12, r20
    5210:	12 2f       	mov	r17, r18
    5212:	b0 2e       	mov	r11, r16
    5214:	2b e3       	ldi	r18, 0x3B	; 59
    5216:	20 17       	cp	r18, r16
    5218:	20 f0       	brcs	.+8      	; 0x5222 <dtoa_prf+0x42>
    521a:	ff 24       	eor	r15, r15
    521c:	f3 94       	inc	r15
    521e:	f0 0e       	add	r15, r16
    5220:	02 c0       	rjmp	.+4      	; 0x5226 <dtoa_prf+0x46>
    5222:	bc e3       	ldi	r27, 0x3C	; 60
    5224:	fb 2e       	mov	r15, r27
    5226:	0f 2d       	mov	r16, r15
    5228:	27 e0       	ldi	r18, 0x07	; 7
    522a:	ae 01       	movw	r20, r28
    522c:	4f 5f       	subi	r20, 0xFF	; 255
    522e:	5f 4f       	sbci	r21, 0xFF	; 255
    5230:	0e 94 7e 2a 	call	0x54fc	; 0x54fc <__ftoa_engine>
    5234:	ac 01       	movw	r20, r24
    5236:	89 81       	ldd	r24, Y+1	; 0x01
    5238:	98 2f       	mov	r25, r24
    523a:	99 70       	andi	r25, 0x09	; 9
    523c:	91 30       	cpi	r25, 0x01	; 1
    523e:	31 f0       	breq	.+12     	; 0x524c <dtoa_prf+0x6c>
    5240:	e1 fc       	sbrc	r14, 1
    5242:	06 c0       	rjmp	.+12     	; 0x5250 <dtoa_prf+0x70>
    5244:	e0 fe       	sbrs	r14, 0
    5246:	06 c0       	rjmp	.+12     	; 0x5254 <dtoa_prf+0x74>
    5248:	90 e2       	ldi	r25, 0x20	; 32
    524a:	05 c0       	rjmp	.+10     	; 0x5256 <dtoa_prf+0x76>
    524c:	9d e2       	ldi	r25, 0x2D	; 45
    524e:	03 c0       	rjmp	.+6      	; 0x5256 <dtoa_prf+0x76>
    5250:	9b e2       	ldi	r25, 0x2B	; 43
    5252:	01 c0       	rjmp	.+2      	; 0x5256 <dtoa_prf+0x76>
    5254:	90 e0       	ldi	r25, 0x00	; 0
    5256:	ee 2d       	mov	r30, r14
    5258:	e0 71       	andi	r30, 0x10	; 16
    525a:	83 ff       	sbrs	r24, 3
    525c:	3c c0       	rjmp	.+120    	; 0x52d6 <dtoa_prf+0xf6>
    525e:	91 11       	cpse	r25, r1
    5260:	02 c0       	rjmp	.+4      	; 0x5266 <dtoa_prf+0x86>
    5262:	83 e0       	ldi	r24, 0x03	; 3
    5264:	01 c0       	rjmp	.+2      	; 0x5268 <dtoa_prf+0x88>
    5266:	84 e0       	ldi	r24, 0x04	; 4
    5268:	81 17       	cp	r24, r17
    526a:	18 f4       	brcc	.+6      	; 0x5272 <dtoa_prf+0x92>
    526c:	21 2f       	mov	r18, r17
    526e:	28 1b       	sub	r18, r24
    5270:	01 c0       	rjmp	.+2      	; 0x5274 <dtoa_prf+0x94>
    5272:	20 e0       	ldi	r18, 0x00	; 0
    5274:	e1 11       	cpse	r30, r1
    5276:	0b c0       	rjmp	.+22     	; 0x528e <dtoa_prf+0xae>
    5278:	f6 01       	movw	r30, r12
    527a:	82 2f       	mov	r24, r18
    527c:	30 e2       	ldi	r19, 0x20	; 32
    527e:	88 23       	and	r24, r24
    5280:	19 f0       	breq	.+6      	; 0x5288 <dtoa_prf+0xa8>
    5282:	31 93       	st	Z+, r19
    5284:	81 50       	subi	r24, 0x01	; 1
    5286:	fb cf       	rjmp	.-10     	; 0x527e <dtoa_prf+0x9e>
    5288:	c2 0e       	add	r12, r18
    528a:	d1 1c       	adc	r13, r1
    528c:	20 e0       	ldi	r18, 0x00	; 0
    528e:	99 23       	and	r25, r25
    5290:	29 f0       	breq	.+10     	; 0x529c <dtoa_prf+0xbc>
    5292:	d6 01       	movw	r26, r12
    5294:	9c 93       	st	X, r25
    5296:	f6 01       	movw	r30, r12
    5298:	31 96       	adiw	r30, 0x01	; 1
    529a:	6f 01       	movw	r12, r30
    529c:	c6 01       	movw	r24, r12
    529e:	03 96       	adiw	r24, 0x03	; 3
    52a0:	e2 fe       	sbrs	r14, 2
    52a2:	0a c0       	rjmp	.+20     	; 0x52b8 <dtoa_prf+0xd8>
    52a4:	3e e4       	ldi	r19, 0x4E	; 78
    52a6:	d6 01       	movw	r26, r12
    52a8:	3c 93       	st	X, r19
    52aa:	41 e4       	ldi	r20, 0x41	; 65
    52ac:	11 96       	adiw	r26, 0x01	; 1
    52ae:	4c 93       	st	X, r20
    52b0:	11 97       	sbiw	r26, 0x01	; 1
    52b2:	12 96       	adiw	r26, 0x02	; 2
    52b4:	3c 93       	st	X, r19
    52b6:	06 c0       	rjmp	.+12     	; 0x52c4 <dtoa_prf+0xe4>
    52b8:	3e e6       	ldi	r19, 0x6E	; 110
    52ba:	f6 01       	movw	r30, r12
    52bc:	30 83       	st	Z, r19
    52be:	41 e6       	ldi	r20, 0x61	; 97
    52c0:	41 83       	std	Z+1, r20	; 0x01
    52c2:	32 83       	std	Z+2, r19	; 0x02
    52c4:	fc 01       	movw	r30, r24
    52c6:	32 2f       	mov	r19, r18
    52c8:	40 e2       	ldi	r20, 0x20	; 32
    52ca:	33 23       	and	r19, r19
    52cc:	09 f4       	brne	.+2      	; 0x52d0 <dtoa_prf+0xf0>
    52ce:	42 c0       	rjmp	.+132    	; 0x5354 <dtoa_prf+0x174>
    52d0:	41 93       	st	Z+, r20
    52d2:	31 50       	subi	r19, 0x01	; 1
    52d4:	fa cf       	rjmp	.-12     	; 0x52ca <dtoa_prf+0xea>
    52d6:	82 ff       	sbrs	r24, 2
    52d8:	44 c0       	rjmp	.+136    	; 0x5362 <dtoa_prf+0x182>
    52da:	91 11       	cpse	r25, r1
    52dc:	02 c0       	rjmp	.+4      	; 0x52e2 <dtoa_prf+0x102>
    52de:	83 e0       	ldi	r24, 0x03	; 3
    52e0:	01 c0       	rjmp	.+2      	; 0x52e4 <dtoa_prf+0x104>
    52e2:	84 e0       	ldi	r24, 0x04	; 4
    52e4:	81 17       	cp	r24, r17
    52e6:	18 f4       	brcc	.+6      	; 0x52ee <dtoa_prf+0x10e>
    52e8:	21 2f       	mov	r18, r17
    52ea:	28 1b       	sub	r18, r24
    52ec:	01 c0       	rjmp	.+2      	; 0x52f0 <dtoa_prf+0x110>
    52ee:	20 e0       	ldi	r18, 0x00	; 0
    52f0:	e1 11       	cpse	r30, r1
    52f2:	0b c0       	rjmp	.+22     	; 0x530a <dtoa_prf+0x12a>
    52f4:	f6 01       	movw	r30, r12
    52f6:	82 2f       	mov	r24, r18
    52f8:	30 e2       	ldi	r19, 0x20	; 32
    52fa:	88 23       	and	r24, r24
    52fc:	19 f0       	breq	.+6      	; 0x5304 <dtoa_prf+0x124>
    52fe:	31 93       	st	Z+, r19
    5300:	81 50       	subi	r24, 0x01	; 1
    5302:	fb cf       	rjmp	.-10     	; 0x52fa <dtoa_prf+0x11a>
    5304:	c2 0e       	add	r12, r18
    5306:	d1 1c       	adc	r13, r1
    5308:	20 e0       	ldi	r18, 0x00	; 0
    530a:	99 23       	and	r25, r25
    530c:	29 f0       	breq	.+10     	; 0x5318 <dtoa_prf+0x138>
    530e:	d6 01       	movw	r26, r12
    5310:	9c 93       	st	X, r25
    5312:	f6 01       	movw	r30, r12
    5314:	31 96       	adiw	r30, 0x01	; 1
    5316:	6f 01       	movw	r12, r30
    5318:	c6 01       	movw	r24, r12
    531a:	03 96       	adiw	r24, 0x03	; 3
    531c:	e2 fe       	sbrs	r14, 2
    531e:	0b c0       	rjmp	.+22     	; 0x5336 <dtoa_prf+0x156>
    5320:	39 e4       	ldi	r19, 0x49	; 73
    5322:	d6 01       	movw	r26, r12
    5324:	3c 93       	st	X, r19
    5326:	3e e4       	ldi	r19, 0x4E	; 78
    5328:	11 96       	adiw	r26, 0x01	; 1
    532a:	3c 93       	st	X, r19
    532c:	11 97       	sbiw	r26, 0x01	; 1
    532e:	36 e4       	ldi	r19, 0x46	; 70
    5330:	12 96       	adiw	r26, 0x02	; 2
    5332:	3c 93       	st	X, r19
    5334:	07 c0       	rjmp	.+14     	; 0x5344 <dtoa_prf+0x164>
    5336:	39 e6       	ldi	r19, 0x69	; 105
    5338:	f6 01       	movw	r30, r12
    533a:	30 83       	st	Z, r19
    533c:	3e e6       	ldi	r19, 0x6E	; 110
    533e:	31 83       	std	Z+1, r19	; 0x01
    5340:	36 e6       	ldi	r19, 0x66	; 102
    5342:	32 83       	std	Z+2, r19	; 0x02
    5344:	fc 01       	movw	r30, r24
    5346:	32 2f       	mov	r19, r18
    5348:	40 e2       	ldi	r20, 0x20	; 32
    534a:	33 23       	and	r19, r19
    534c:	19 f0       	breq	.+6      	; 0x5354 <dtoa_prf+0x174>
    534e:	41 93       	st	Z+, r20
    5350:	31 50       	subi	r19, 0x01	; 1
    5352:	fb cf       	rjmp	.-10     	; 0x534a <dtoa_prf+0x16a>
    5354:	fc 01       	movw	r30, r24
    5356:	e2 0f       	add	r30, r18
    5358:	f1 1d       	adc	r31, r1
    535a:	10 82       	st	Z, r1
    535c:	8e ef       	ldi	r24, 0xFE	; 254
    535e:	9f ef       	ldi	r25, 0xFF	; 255
    5360:	b7 c0       	rjmp	.+366    	; 0x54d0 <dtoa_prf+0x2f0>
    5362:	f1 e0       	ldi	r31, 0x01	; 1
    5364:	91 11       	cpse	r25, r1
    5366:	01 c0       	rjmp	.+2      	; 0x536a <dtoa_prf+0x18a>
    5368:	f0 e0       	ldi	r31, 0x00	; 0
    536a:	6f 2f       	mov	r22, r31
    536c:	70 e0       	ldi	r23, 0x00	; 0
    536e:	14 16       	cp	r1, r20
    5370:	15 06       	cpc	r1, r21
    5372:	24 f4       	brge	.+8      	; 0x537c <dtoa_prf+0x19c>
    5374:	9a 01       	movw	r18, r20
    5376:	2f 5f       	subi	r18, 0xFF	; 255
    5378:	3f 4f       	sbci	r19, 0xFF	; 255
    537a:	02 c0       	rjmp	.+4      	; 0x5380 <dtoa_prf+0x1a0>
    537c:	21 e0       	ldi	r18, 0x01	; 1
    537e:	30 e0       	ldi	r19, 0x00	; 0
    5380:	26 0f       	add	r18, r22
    5382:	37 1f       	adc	r19, r23
    5384:	bb 20       	and	r11, r11
    5386:	29 f0       	breq	.+10     	; 0x5392 <dtoa_prf+0x1b2>
    5388:	6b 2d       	mov	r22, r11
    538a:	70 e0       	ldi	r23, 0x00	; 0
    538c:	6f 5f       	subi	r22, 0xFF	; 255
    538e:	7f 4f       	sbci	r23, 0xFF	; 255
    5390:	02 c0       	rjmp	.+4      	; 0x5396 <dtoa_prf+0x1b6>
    5392:	60 e0       	ldi	r22, 0x00	; 0
    5394:	70 e0       	ldi	r23, 0x00	; 0
    5396:	26 0f       	add	r18, r22
    5398:	37 1f       	adc	r19, r23
    539a:	61 2f       	mov	r22, r17
    539c:	70 e0       	ldi	r23, 0x00	; 0
    539e:	26 17       	cp	r18, r22
    53a0:	37 07       	cpc	r19, r23
    53a2:	1c f4       	brge	.+6      	; 0x53aa <dtoa_prf+0x1ca>
    53a4:	12 1b       	sub	r17, r18
    53a6:	21 2f       	mov	r18, r17
    53a8:	01 c0       	rjmp	.+2      	; 0x53ac <dtoa_prf+0x1cc>
    53aa:	20 e0       	ldi	r18, 0x00	; 0
    53ac:	3e 2d       	mov	r19, r14
    53ae:	38 71       	andi	r19, 0x18	; 24
    53b0:	59 f4       	brne	.+22     	; 0x53c8 <dtoa_prf+0x1e8>
    53b2:	d6 01       	movw	r26, r12
    53b4:	32 2f       	mov	r19, r18
    53b6:	60 e2       	ldi	r22, 0x20	; 32
    53b8:	33 23       	and	r19, r19
    53ba:	19 f0       	breq	.+6      	; 0x53c2 <dtoa_prf+0x1e2>
    53bc:	6d 93       	st	X+, r22
    53be:	31 50       	subi	r19, 0x01	; 1
    53c0:	fb cf       	rjmp	.-10     	; 0x53b8 <dtoa_prf+0x1d8>
    53c2:	c2 0e       	add	r12, r18
    53c4:	d1 1c       	adc	r13, r1
    53c6:	20 e0       	ldi	r18, 0x00	; 0
    53c8:	ff 23       	and	r31, r31
    53ca:	31 f0       	breq	.+12     	; 0x53d8 <dtoa_prf+0x1f8>
    53cc:	d6 01       	movw	r26, r12
    53ce:	9c 93       	st	X, r25
    53d0:	b6 01       	movw	r22, r12
    53d2:	6f 5f       	subi	r22, 0xFF	; 255
    53d4:	7f 4f       	sbci	r23, 0xFF	; 255
    53d6:	6b 01       	movw	r12, r22
    53d8:	e1 11       	cpse	r30, r1
    53da:	0b c0       	rjmp	.+22     	; 0x53f2 <dtoa_prf+0x212>
    53dc:	f6 01       	movw	r30, r12
    53de:	92 2f       	mov	r25, r18
    53e0:	30 e3       	ldi	r19, 0x30	; 48
    53e2:	99 23       	and	r25, r25
    53e4:	19 f0       	breq	.+6      	; 0x53ec <dtoa_prf+0x20c>
    53e6:	31 93       	st	Z+, r19
    53e8:	91 50       	subi	r25, 0x01	; 1
    53ea:	fb cf       	rjmp	.-10     	; 0x53e2 <dtoa_prf+0x202>
    53ec:	c2 0e       	add	r12, r18
    53ee:	d1 1c       	adc	r13, r1
    53f0:	20 e0       	ldi	r18, 0x00	; 0
    53f2:	9f 2d       	mov	r25, r15
    53f4:	94 0f       	add	r25, r20
    53f6:	3a 81       	ldd	r19, Y+2	; 0x02
    53f8:	78 2f       	mov	r23, r24
    53fa:	70 71       	andi	r23, 0x10	; 16
    53fc:	a7 2e       	mov	r10, r23
    53fe:	84 ff       	sbrs	r24, 4
    5400:	03 c0       	rjmp	.+6      	; 0x5408 <dtoa_prf+0x228>
    5402:	31 33       	cpi	r19, 0x31	; 49
    5404:	09 f4       	brne	.+2      	; 0x5408 <dtoa_prf+0x228>
    5406:	91 50       	subi	r25, 0x01	; 1
    5408:	19 16       	cp	r1, r25
    540a:	24 f4       	brge	.+8      	; 0x5414 <dtoa_prf+0x234>
    540c:	99 30       	cpi	r25, 0x09	; 9
    540e:	18 f0       	brcs	.+6      	; 0x5416 <dtoa_prf+0x236>
    5410:	98 e0       	ldi	r25, 0x08	; 8
    5412:	01 c0       	rjmp	.+2      	; 0x5416 <dtoa_prf+0x236>
    5414:	91 e0       	ldi	r25, 0x01	; 1
    5416:	e4 2f       	mov	r30, r20
    5418:	85 2f       	mov	r24, r21
    541a:	57 ff       	sbrs	r21, 7
    541c:	02 c0       	rjmp	.+4      	; 0x5422 <dtoa_prf+0x242>
    541e:	e0 e0       	ldi	r30, 0x00	; 0
    5420:	80 e0       	ldi	r24, 0x00	; 0
    5422:	6e 2f       	mov	r22, r30
    5424:	78 2f       	mov	r23, r24
    5426:	e0 e0       	ldi	r30, 0x00	; 0
    5428:	f0 e0       	ldi	r31, 0x00	; 0
    542a:	ae e2       	ldi	r26, 0x2E	; 46
    542c:	9a 2e       	mov	r9, r26
    542e:	3a 01       	movw	r6, r20
    5430:	69 1a       	sub	r6, r25
    5432:	71 08       	sbc	r7, r1
    5434:	2a 01       	movw	r4, r20
    5436:	46 1a       	sub	r4, r22
    5438:	57 0a       	sbc	r5, r23
    543a:	0b 2d       	mov	r16, r11
    543c:	10 e0       	ldi	r17, 0x00	; 0
    543e:	11 95       	neg	r17
    5440:	01 95       	neg	r16
    5442:	11 09       	sbc	r17, r1
    5444:	6f 3f       	cpi	r22, 0xFF	; 255
    5446:	8f ef       	ldi	r24, 0xFF	; 255
    5448:	78 07       	cpc	r23, r24
    544a:	29 f4       	brne	.+10     	; 0x5456 <dtoa_prf+0x276>
    544c:	d6 01       	movw	r26, r12
    544e:	9c 92       	st	X, r9
    5450:	c6 01       	movw	r24, r12
    5452:	01 96       	adiw	r24, 0x01	; 1
    5454:	6c 01       	movw	r12, r24
    5456:	46 17       	cp	r20, r22
    5458:	57 07       	cpc	r21, r23
    545a:	84 f0       	brlt	.+32     	; 0x547c <dtoa_prf+0x29c>
    545c:	66 16       	cp	r6, r22
    545e:	77 06       	cpc	r7, r23
    5460:	6c f4       	brge	.+26     	; 0x547c <dtoa_prf+0x29c>
    5462:	7f 01       	movw	r14, r30
    5464:	e4 0c       	add	r14, r4
    5466:	f5 1c       	adc	r15, r5
    5468:	a1 e0       	ldi	r26, 0x01	; 1
    546a:	b0 e0       	ldi	r27, 0x00	; 0
    546c:	ac 0f       	add	r26, r28
    546e:	bd 1f       	adc	r27, r29
    5470:	ea 0e       	add	r14, r26
    5472:	fb 1e       	adc	r15, r27
    5474:	d7 01       	movw	r26, r14
    5476:	11 96       	adiw	r26, 0x01	; 1
    5478:	bc 90       	ld	r11, X
    547a:	02 c0       	rjmp	.+4      	; 0x5480 <dtoa_prf+0x2a0>
    547c:	90 e3       	ldi	r25, 0x30	; 48
    547e:	b9 2e       	mov	r11, r25
    5480:	61 50       	subi	r22, 0x01	; 1
    5482:	71 09       	sbc	r23, r1
    5484:	31 96       	adiw	r30, 0x01	; 1
    5486:	c6 01       	movw	r24, r12
    5488:	01 96       	adiw	r24, 0x01	; 1
    548a:	7c 01       	movw	r14, r24
    548c:	60 17       	cp	r22, r16
    548e:	71 07       	cpc	r23, r17
    5490:	24 f0       	brlt	.+8      	; 0x549a <dtoa_prf+0x2ba>
    5492:	d6 01       	movw	r26, r12
    5494:	bc 92       	st	X, r11
    5496:	6c 01       	movw	r12, r24
    5498:	d5 cf       	rjmp	.-86     	; 0x5444 <dtoa_prf+0x264>
    549a:	64 17       	cp	r22, r20
    549c:	75 07       	cpc	r23, r21
    549e:	41 f4       	brne	.+16     	; 0x54b0 <dtoa_prf+0x2d0>
    54a0:	36 33       	cpi	r19, 0x36	; 54
    54a2:	20 f4       	brcc	.+8      	; 0x54ac <dtoa_prf+0x2cc>
    54a4:	35 33       	cpi	r19, 0x35	; 53
    54a6:	21 f4       	brne	.+8      	; 0x54b0 <dtoa_prf+0x2d0>
    54a8:	a1 10       	cpse	r10, r1
    54aa:	02 c0       	rjmp	.+4      	; 0x54b0 <dtoa_prf+0x2d0>
    54ac:	81 e3       	ldi	r24, 0x31	; 49
    54ae:	b8 2e       	mov	r11, r24
    54b0:	f6 01       	movw	r30, r12
    54b2:	b0 82       	st	Z, r11
    54b4:	f7 01       	movw	r30, r14
    54b6:	82 2f       	mov	r24, r18
    54b8:	90 e2       	ldi	r25, 0x20	; 32
    54ba:	88 23       	and	r24, r24
    54bc:	19 f0       	breq	.+6      	; 0x54c4 <dtoa_prf+0x2e4>
    54be:	91 93       	st	Z+, r25
    54c0:	81 50       	subi	r24, 0x01	; 1
    54c2:	fb cf       	rjmp	.-10     	; 0x54ba <dtoa_prf+0x2da>
    54c4:	f7 01       	movw	r30, r14
    54c6:	e2 0f       	add	r30, r18
    54c8:	f1 1d       	adc	r31, r1
    54ca:	10 82       	st	Z, r1
    54cc:	80 e0       	ldi	r24, 0x00	; 0
    54ce:	90 e0       	ldi	r25, 0x00	; 0
    54d0:	29 96       	adiw	r28, 0x09	; 9
    54d2:	0f b6       	in	r0, 0x3f	; 63
    54d4:	f8 94       	cli
    54d6:	de bf       	out	0x3e, r29	; 62
    54d8:	0f be       	out	0x3f, r0	; 63
    54da:	cd bf       	out	0x3d, r28	; 61
    54dc:	df 91       	pop	r29
    54de:	cf 91       	pop	r28
    54e0:	1f 91       	pop	r17
    54e2:	0f 91       	pop	r16
    54e4:	ff 90       	pop	r15
    54e6:	ef 90       	pop	r14
    54e8:	df 90       	pop	r13
    54ea:	cf 90       	pop	r12
    54ec:	bf 90       	pop	r11
    54ee:	af 90       	pop	r10
    54f0:	9f 90       	pop	r9
    54f2:	7f 90       	pop	r7
    54f4:	6f 90       	pop	r6
    54f6:	5f 90       	pop	r5
    54f8:	4f 90       	pop	r4
    54fa:	08 95       	ret

000054fc <__ftoa_engine>:
    54fc:	28 30       	cpi	r18, 0x08	; 8
    54fe:	08 f0       	brcs	.+2      	; 0x5502 <__ftoa_engine+0x6>
    5500:	27 e0       	ldi	r18, 0x07	; 7
    5502:	33 27       	eor	r19, r19
    5504:	da 01       	movw	r26, r20
    5506:	99 0f       	add	r25, r25
    5508:	31 1d       	adc	r19, r1
    550a:	87 fd       	sbrc	r24, 7
    550c:	91 60       	ori	r25, 0x01	; 1
    550e:	00 96       	adiw	r24, 0x00	; 0
    5510:	61 05       	cpc	r22, r1
    5512:	71 05       	cpc	r23, r1
    5514:	39 f4       	brne	.+14     	; 0x5524 <__ftoa_engine+0x28>
    5516:	32 60       	ori	r19, 0x02	; 2
    5518:	2e 5f       	subi	r18, 0xFE	; 254
    551a:	3d 93       	st	X+, r19
    551c:	30 e3       	ldi	r19, 0x30	; 48
    551e:	2a 95       	dec	r18
    5520:	e1 f7       	brne	.-8      	; 0x551a <__ftoa_engine+0x1e>
    5522:	08 95       	ret
    5524:	9f 3f       	cpi	r25, 0xFF	; 255
    5526:	30 f0       	brcs	.+12     	; 0x5534 <__ftoa_engine+0x38>
    5528:	80 38       	cpi	r24, 0x80	; 128
    552a:	71 05       	cpc	r23, r1
    552c:	61 05       	cpc	r22, r1
    552e:	09 f0       	breq	.+2      	; 0x5532 <__ftoa_engine+0x36>
    5530:	3c 5f       	subi	r19, 0xFC	; 252
    5532:	3c 5f       	subi	r19, 0xFC	; 252
    5534:	3d 93       	st	X+, r19
    5536:	91 30       	cpi	r25, 0x01	; 1
    5538:	08 f0       	brcs	.+2      	; 0x553c <__ftoa_engine+0x40>
    553a:	80 68       	ori	r24, 0x80	; 128
    553c:	91 1d       	adc	r25, r1
    553e:	df 93       	push	r29
    5540:	cf 93       	push	r28
    5542:	1f 93       	push	r17
    5544:	0f 93       	push	r16
    5546:	ff 92       	push	r15
    5548:	ef 92       	push	r14
    554a:	19 2f       	mov	r17, r25
    554c:	98 7f       	andi	r25, 0xF8	; 248
    554e:	96 95       	lsr	r25
    5550:	e9 2f       	mov	r30, r25
    5552:	96 95       	lsr	r25
    5554:	96 95       	lsr	r25
    5556:	e9 0f       	add	r30, r25
    5558:	ff 27       	eor	r31, r31
    555a:	e8 52       	subi	r30, 0x28	; 40
    555c:	ff 4f       	sbci	r31, 0xFF	; 255
    555e:	99 27       	eor	r25, r25
    5560:	33 27       	eor	r19, r19
    5562:	ee 24       	eor	r14, r14
    5564:	ff 24       	eor	r15, r15
    5566:	a7 01       	movw	r20, r14
    5568:	e7 01       	movw	r28, r14
    556a:	05 90       	lpm	r0, Z+
    556c:	08 94       	sec
    556e:	07 94       	ror	r0
    5570:	28 f4       	brcc	.+10     	; 0x557c <__ftoa_engine+0x80>
    5572:	36 0f       	add	r19, r22
    5574:	e7 1e       	adc	r14, r23
    5576:	f8 1e       	adc	r15, r24
    5578:	49 1f       	adc	r20, r25
    557a:	51 1d       	adc	r21, r1
    557c:	66 0f       	add	r22, r22
    557e:	77 1f       	adc	r23, r23
    5580:	88 1f       	adc	r24, r24
    5582:	99 1f       	adc	r25, r25
    5584:	06 94       	lsr	r0
    5586:	a1 f7       	brne	.-24     	; 0x5570 <__ftoa_engine+0x74>
    5588:	05 90       	lpm	r0, Z+
    558a:	07 94       	ror	r0
    558c:	28 f4       	brcc	.+10     	; 0x5598 <__ftoa_engine+0x9c>
    558e:	e7 0e       	add	r14, r23
    5590:	f8 1e       	adc	r15, r24
    5592:	49 1f       	adc	r20, r25
    5594:	56 1f       	adc	r21, r22
    5596:	c1 1d       	adc	r28, r1
    5598:	77 0f       	add	r23, r23
    559a:	88 1f       	adc	r24, r24
    559c:	99 1f       	adc	r25, r25
    559e:	66 1f       	adc	r22, r22
    55a0:	06 94       	lsr	r0
    55a2:	a1 f7       	brne	.-24     	; 0x558c <__ftoa_engine+0x90>
    55a4:	05 90       	lpm	r0, Z+
    55a6:	07 94       	ror	r0
    55a8:	28 f4       	brcc	.+10     	; 0x55b4 <__ftoa_engine+0xb8>
    55aa:	f8 0e       	add	r15, r24
    55ac:	49 1f       	adc	r20, r25
    55ae:	56 1f       	adc	r21, r22
    55b0:	c7 1f       	adc	r28, r23
    55b2:	d1 1d       	adc	r29, r1
    55b4:	88 0f       	add	r24, r24
    55b6:	99 1f       	adc	r25, r25
    55b8:	66 1f       	adc	r22, r22
    55ba:	77 1f       	adc	r23, r23
    55bc:	06 94       	lsr	r0
    55be:	a1 f7       	brne	.-24     	; 0x55a8 <__ftoa_engine+0xac>
    55c0:	05 90       	lpm	r0, Z+
    55c2:	07 94       	ror	r0
    55c4:	20 f4       	brcc	.+8      	; 0x55ce <__ftoa_engine+0xd2>
    55c6:	49 0f       	add	r20, r25
    55c8:	56 1f       	adc	r21, r22
    55ca:	c7 1f       	adc	r28, r23
    55cc:	d8 1f       	adc	r29, r24
    55ce:	99 0f       	add	r25, r25
    55d0:	66 1f       	adc	r22, r22
    55d2:	77 1f       	adc	r23, r23
    55d4:	88 1f       	adc	r24, r24
    55d6:	06 94       	lsr	r0
    55d8:	a9 f7       	brne	.-22     	; 0x55c4 <__ftoa_engine+0xc8>
    55da:	84 91       	lpm	r24, Z
    55dc:	10 95       	com	r17
    55de:	17 70       	andi	r17, 0x07	; 7
    55e0:	41 f0       	breq	.+16     	; 0x55f2 <__ftoa_engine+0xf6>
    55e2:	d6 95       	lsr	r29
    55e4:	c7 95       	ror	r28
    55e6:	57 95       	ror	r21
    55e8:	47 95       	ror	r20
    55ea:	f7 94       	ror	r15
    55ec:	e7 94       	ror	r14
    55ee:	1a 95       	dec	r17
    55f0:	c1 f7       	brne	.-16     	; 0x55e2 <__ftoa_engine+0xe6>
    55f2:	ee e7       	ldi	r30, 0x7E	; 126
    55f4:	f0 e0       	ldi	r31, 0x00	; 0
    55f6:	68 94       	set
    55f8:	15 90       	lpm	r1, Z+
    55fa:	15 91       	lpm	r17, Z+
    55fc:	35 91       	lpm	r19, Z+
    55fe:	65 91       	lpm	r22, Z+
    5600:	95 91       	lpm	r25, Z+
    5602:	05 90       	lpm	r0, Z+
    5604:	7f e2       	ldi	r23, 0x2F	; 47
    5606:	73 95       	inc	r23
    5608:	e1 18       	sub	r14, r1
    560a:	f1 0a       	sbc	r15, r17
    560c:	43 0b       	sbc	r20, r19
    560e:	56 0b       	sbc	r21, r22
    5610:	c9 0b       	sbc	r28, r25
    5612:	d0 09       	sbc	r29, r0
    5614:	c0 f7       	brcc	.-16     	; 0x5606 <__ftoa_engine+0x10a>
    5616:	e1 0c       	add	r14, r1
    5618:	f1 1e       	adc	r15, r17
    561a:	43 1f       	adc	r20, r19
    561c:	56 1f       	adc	r21, r22
    561e:	c9 1f       	adc	r28, r25
    5620:	d0 1d       	adc	r29, r0
    5622:	7e f4       	brtc	.+30     	; 0x5642 <__ftoa_engine+0x146>
    5624:	70 33       	cpi	r23, 0x30	; 48
    5626:	11 f4       	brne	.+4      	; 0x562c <__ftoa_engine+0x130>
    5628:	8a 95       	dec	r24
    562a:	e6 cf       	rjmp	.-52     	; 0x55f8 <__ftoa_engine+0xfc>
    562c:	e8 94       	clt
    562e:	01 50       	subi	r16, 0x01	; 1
    5630:	30 f0       	brcs	.+12     	; 0x563e <__ftoa_engine+0x142>
    5632:	08 0f       	add	r16, r24
    5634:	0a f4       	brpl	.+2      	; 0x5638 <__ftoa_engine+0x13c>
    5636:	00 27       	eor	r16, r16
    5638:	02 17       	cp	r16, r18
    563a:	08 f4       	brcc	.+2      	; 0x563e <__ftoa_engine+0x142>
    563c:	20 2f       	mov	r18, r16
    563e:	23 95       	inc	r18
    5640:	02 2f       	mov	r16, r18
    5642:	7a 33       	cpi	r23, 0x3A	; 58
    5644:	28 f0       	brcs	.+10     	; 0x5650 <__ftoa_engine+0x154>
    5646:	79 e3       	ldi	r23, 0x39	; 57
    5648:	7d 93       	st	X+, r23
    564a:	2a 95       	dec	r18
    564c:	e9 f7       	brne	.-6      	; 0x5648 <__ftoa_engine+0x14c>
    564e:	10 c0       	rjmp	.+32     	; 0x5670 <__ftoa_engine+0x174>
    5650:	7d 93       	st	X+, r23
    5652:	2a 95       	dec	r18
    5654:	89 f6       	brne	.-94     	; 0x55f8 <__ftoa_engine+0xfc>
    5656:	06 94       	lsr	r0
    5658:	97 95       	ror	r25
    565a:	67 95       	ror	r22
    565c:	37 95       	ror	r19
    565e:	17 95       	ror	r17
    5660:	17 94       	ror	r1
    5662:	e1 18       	sub	r14, r1
    5664:	f1 0a       	sbc	r15, r17
    5666:	43 0b       	sbc	r20, r19
    5668:	56 0b       	sbc	r21, r22
    566a:	c9 0b       	sbc	r28, r25
    566c:	d0 09       	sbc	r29, r0
    566e:	98 f0       	brcs	.+38     	; 0x5696 <__ftoa_engine+0x19a>
    5670:	23 95       	inc	r18
    5672:	7e 91       	ld	r23, -X
    5674:	73 95       	inc	r23
    5676:	7a 33       	cpi	r23, 0x3A	; 58
    5678:	08 f0       	brcs	.+2      	; 0x567c <__ftoa_engine+0x180>
    567a:	70 e3       	ldi	r23, 0x30	; 48
    567c:	7c 93       	st	X, r23
    567e:	20 13       	cpse	r18, r16
    5680:	b8 f7       	brcc	.-18     	; 0x5670 <__ftoa_engine+0x174>
    5682:	7e 91       	ld	r23, -X
    5684:	70 61       	ori	r23, 0x10	; 16
    5686:	7d 93       	st	X+, r23
    5688:	30 f0       	brcs	.+12     	; 0x5696 <__ftoa_engine+0x19a>
    568a:	83 95       	inc	r24
    568c:	71 e3       	ldi	r23, 0x31	; 49
    568e:	7d 93       	st	X+, r23
    5690:	70 e3       	ldi	r23, 0x30	; 48
    5692:	2a 95       	dec	r18
    5694:	e1 f7       	brne	.-8      	; 0x568e <__ftoa_engine+0x192>
    5696:	11 24       	eor	r1, r1
    5698:	ef 90       	pop	r14
    569a:	ff 90       	pop	r15
    569c:	0f 91       	pop	r16
    569e:	1f 91       	pop	r17
    56a0:	cf 91       	pop	r28
    56a2:	df 91       	pop	r29
    56a4:	99 27       	eor	r25, r25
    56a6:	87 fd       	sbrc	r24, 7
    56a8:	90 95       	com	r25
    56aa:	08 95       	ret

000056ac <strnlen_P>:
    56ac:	fc 01       	movw	r30, r24
    56ae:	05 90       	lpm	r0, Z+
    56b0:	61 50       	subi	r22, 0x01	; 1
    56b2:	70 40       	sbci	r23, 0x00	; 0
    56b4:	01 10       	cpse	r0, r1
    56b6:	d8 f7       	brcc	.-10     	; 0x56ae <strnlen_P+0x2>
    56b8:	80 95       	com	r24
    56ba:	90 95       	com	r25
    56bc:	8e 0f       	add	r24, r30
    56be:	9f 1f       	adc	r25, r31
    56c0:	08 95       	ret

000056c2 <strnlen>:
    56c2:	fc 01       	movw	r30, r24
    56c4:	61 50       	subi	r22, 0x01	; 1
    56c6:	70 40       	sbci	r23, 0x00	; 0
    56c8:	01 90       	ld	r0, Z+
    56ca:	01 10       	cpse	r0, r1
    56cc:	d8 f7       	brcc	.-10     	; 0x56c4 <strnlen+0x2>
    56ce:	80 95       	com	r24
    56d0:	90 95       	com	r25
    56d2:	8e 0f       	add	r24, r30
    56d4:	9f 1f       	adc	r25, r31
    56d6:	08 95       	ret

000056d8 <fputc>:
    56d8:	0f 93       	push	r16
    56da:	1f 93       	push	r17
    56dc:	cf 93       	push	r28
    56de:	df 93       	push	r29
    56e0:	fb 01       	movw	r30, r22
    56e2:	23 81       	ldd	r18, Z+3	; 0x03
    56e4:	21 fd       	sbrc	r18, 1
    56e6:	03 c0       	rjmp	.+6      	; 0x56ee <fputc+0x16>
    56e8:	8f ef       	ldi	r24, 0xFF	; 255
    56ea:	9f ef       	ldi	r25, 0xFF	; 255
    56ec:	28 c0       	rjmp	.+80     	; 0x573e <fputc+0x66>
    56ee:	22 ff       	sbrs	r18, 2
    56f0:	16 c0       	rjmp	.+44     	; 0x571e <fputc+0x46>
    56f2:	46 81       	ldd	r20, Z+6	; 0x06
    56f4:	57 81       	ldd	r21, Z+7	; 0x07
    56f6:	24 81       	ldd	r18, Z+4	; 0x04
    56f8:	35 81       	ldd	r19, Z+5	; 0x05
    56fa:	42 17       	cp	r20, r18
    56fc:	53 07       	cpc	r21, r19
    56fe:	44 f4       	brge	.+16     	; 0x5710 <fputc+0x38>
    5700:	a0 81       	ld	r26, Z
    5702:	b1 81       	ldd	r27, Z+1	; 0x01
    5704:	9d 01       	movw	r18, r26
    5706:	2f 5f       	subi	r18, 0xFF	; 255
    5708:	3f 4f       	sbci	r19, 0xFF	; 255
    570a:	31 83       	std	Z+1, r19	; 0x01
    570c:	20 83       	st	Z, r18
    570e:	8c 93       	st	X, r24
    5710:	26 81       	ldd	r18, Z+6	; 0x06
    5712:	37 81       	ldd	r19, Z+7	; 0x07
    5714:	2f 5f       	subi	r18, 0xFF	; 255
    5716:	3f 4f       	sbci	r19, 0xFF	; 255
    5718:	37 83       	std	Z+7, r19	; 0x07
    571a:	26 83       	std	Z+6, r18	; 0x06
    571c:	10 c0       	rjmp	.+32     	; 0x573e <fputc+0x66>
    571e:	eb 01       	movw	r28, r22
    5720:	09 2f       	mov	r16, r25
    5722:	18 2f       	mov	r17, r24
    5724:	00 84       	ldd	r0, Z+8	; 0x08
    5726:	f1 85       	ldd	r31, Z+9	; 0x09
    5728:	e0 2d       	mov	r30, r0
    572a:	09 95       	icall
    572c:	89 2b       	or	r24, r25
    572e:	e1 f6       	brne	.-72     	; 0x56e8 <fputc+0x10>
    5730:	8e 81       	ldd	r24, Y+6	; 0x06
    5732:	9f 81       	ldd	r25, Y+7	; 0x07
    5734:	01 96       	adiw	r24, 0x01	; 1
    5736:	9f 83       	std	Y+7, r25	; 0x07
    5738:	8e 83       	std	Y+6, r24	; 0x06
    573a:	81 2f       	mov	r24, r17
    573c:	90 2f       	mov	r25, r16
    573e:	df 91       	pop	r29
    5740:	cf 91       	pop	r28
    5742:	1f 91       	pop	r17
    5744:	0f 91       	pop	r16
    5746:	08 95       	ret

00005748 <__ultoa_invert>:
    5748:	fa 01       	movw	r30, r20
    574a:	aa 27       	eor	r26, r26
    574c:	28 30       	cpi	r18, 0x08	; 8
    574e:	51 f1       	breq	.+84     	; 0x57a4 <__ultoa_invert+0x5c>
    5750:	20 31       	cpi	r18, 0x10	; 16
    5752:	81 f1       	breq	.+96     	; 0x57b4 <__ultoa_invert+0x6c>
    5754:	e8 94       	clt
    5756:	6f 93       	push	r22
    5758:	6e 7f       	andi	r22, 0xFE	; 254
    575a:	6e 5f       	subi	r22, 0xFE	; 254
    575c:	7f 4f       	sbci	r23, 0xFF	; 255
    575e:	8f 4f       	sbci	r24, 0xFF	; 255
    5760:	9f 4f       	sbci	r25, 0xFF	; 255
    5762:	af 4f       	sbci	r26, 0xFF	; 255
    5764:	b1 e0       	ldi	r27, 0x01	; 1
    5766:	3e d0       	rcall	.+124    	; 0x57e4 <__ultoa_invert+0x9c>
    5768:	b4 e0       	ldi	r27, 0x04	; 4
    576a:	3c d0       	rcall	.+120    	; 0x57e4 <__ultoa_invert+0x9c>
    576c:	67 0f       	add	r22, r23
    576e:	78 1f       	adc	r23, r24
    5770:	89 1f       	adc	r24, r25
    5772:	9a 1f       	adc	r25, r26
    5774:	a1 1d       	adc	r26, r1
    5776:	68 0f       	add	r22, r24
    5778:	79 1f       	adc	r23, r25
    577a:	8a 1f       	adc	r24, r26
    577c:	91 1d       	adc	r25, r1
    577e:	a1 1d       	adc	r26, r1
    5780:	6a 0f       	add	r22, r26
    5782:	71 1d       	adc	r23, r1
    5784:	81 1d       	adc	r24, r1
    5786:	91 1d       	adc	r25, r1
    5788:	a1 1d       	adc	r26, r1
    578a:	20 d0       	rcall	.+64     	; 0x57cc <__ultoa_invert+0x84>
    578c:	09 f4       	brne	.+2      	; 0x5790 <__ultoa_invert+0x48>
    578e:	68 94       	set
    5790:	3f 91       	pop	r19
    5792:	2a e0       	ldi	r18, 0x0A	; 10
    5794:	26 9f       	mul	r18, r22
    5796:	11 24       	eor	r1, r1
    5798:	30 19       	sub	r19, r0
    579a:	30 5d       	subi	r19, 0xD0	; 208
    579c:	31 93       	st	Z+, r19
    579e:	de f6       	brtc	.-74     	; 0x5756 <__ultoa_invert+0xe>
    57a0:	cf 01       	movw	r24, r30
    57a2:	08 95       	ret
    57a4:	46 2f       	mov	r20, r22
    57a6:	47 70       	andi	r20, 0x07	; 7
    57a8:	40 5d       	subi	r20, 0xD0	; 208
    57aa:	41 93       	st	Z+, r20
    57ac:	b3 e0       	ldi	r27, 0x03	; 3
    57ae:	0f d0       	rcall	.+30     	; 0x57ce <__ultoa_invert+0x86>
    57b0:	c9 f7       	brne	.-14     	; 0x57a4 <__ultoa_invert+0x5c>
    57b2:	f6 cf       	rjmp	.-20     	; 0x57a0 <__ultoa_invert+0x58>
    57b4:	46 2f       	mov	r20, r22
    57b6:	4f 70       	andi	r20, 0x0F	; 15
    57b8:	40 5d       	subi	r20, 0xD0	; 208
    57ba:	4a 33       	cpi	r20, 0x3A	; 58
    57bc:	18 f0       	brcs	.+6      	; 0x57c4 <__ultoa_invert+0x7c>
    57be:	49 5d       	subi	r20, 0xD9	; 217
    57c0:	31 fd       	sbrc	r19, 1
    57c2:	40 52       	subi	r20, 0x20	; 32
    57c4:	41 93       	st	Z+, r20
    57c6:	02 d0       	rcall	.+4      	; 0x57cc <__ultoa_invert+0x84>
    57c8:	a9 f7       	brne	.-22     	; 0x57b4 <__ultoa_invert+0x6c>
    57ca:	ea cf       	rjmp	.-44     	; 0x57a0 <__ultoa_invert+0x58>
    57cc:	b4 e0       	ldi	r27, 0x04	; 4
    57ce:	a6 95       	lsr	r26
    57d0:	97 95       	ror	r25
    57d2:	87 95       	ror	r24
    57d4:	77 95       	ror	r23
    57d6:	67 95       	ror	r22
    57d8:	ba 95       	dec	r27
    57da:	c9 f7       	brne	.-14     	; 0x57ce <__ultoa_invert+0x86>
    57dc:	00 97       	sbiw	r24, 0x00	; 0
    57de:	61 05       	cpc	r22, r1
    57e0:	71 05       	cpc	r23, r1
    57e2:	08 95       	ret
    57e4:	9b 01       	movw	r18, r22
    57e6:	ac 01       	movw	r20, r24
    57e8:	0a 2e       	mov	r0, r26
    57ea:	06 94       	lsr	r0
    57ec:	57 95       	ror	r21
    57ee:	47 95       	ror	r20
    57f0:	37 95       	ror	r19
    57f2:	27 95       	ror	r18
    57f4:	ba 95       	dec	r27
    57f6:	c9 f7       	brne	.-14     	; 0x57ea <__ultoa_invert+0xa2>
    57f8:	62 0f       	add	r22, r18
    57fa:	73 1f       	adc	r23, r19
    57fc:	84 1f       	adc	r24, r20
    57fe:	95 1f       	adc	r25, r21
    5800:	a0 1d       	adc	r26, r0
    5802:	08 95       	ret

00005804 <__prologue_saves__>:
    5804:	2f 92       	push	r2
    5806:	3f 92       	push	r3
    5808:	4f 92       	push	r4
    580a:	5f 92       	push	r5
    580c:	6f 92       	push	r6
    580e:	7f 92       	push	r7
    5810:	8f 92       	push	r8
    5812:	9f 92       	push	r9
    5814:	af 92       	push	r10
    5816:	bf 92       	push	r11
    5818:	cf 92       	push	r12
    581a:	df 92       	push	r13
    581c:	ef 92       	push	r14
    581e:	ff 92       	push	r15
    5820:	0f 93       	push	r16
    5822:	1f 93       	push	r17
    5824:	cf 93       	push	r28
    5826:	df 93       	push	r29
    5828:	cd b7       	in	r28, 0x3d	; 61
    582a:	de b7       	in	r29, 0x3e	; 62
    582c:	ca 1b       	sub	r28, r26
    582e:	db 0b       	sbc	r29, r27
    5830:	0f b6       	in	r0, 0x3f	; 63
    5832:	f8 94       	cli
    5834:	de bf       	out	0x3e, r29	; 62
    5836:	0f be       	out	0x3f, r0	; 63
    5838:	cd bf       	out	0x3d, r28	; 61
    583a:	09 94       	ijmp

0000583c <__epilogue_restores__>:
    583c:	2a 88       	ldd	r2, Y+18	; 0x12
    583e:	39 88       	ldd	r3, Y+17	; 0x11
    5840:	48 88       	ldd	r4, Y+16	; 0x10
    5842:	5f 84       	ldd	r5, Y+15	; 0x0f
    5844:	6e 84       	ldd	r6, Y+14	; 0x0e
    5846:	7d 84       	ldd	r7, Y+13	; 0x0d
    5848:	8c 84       	ldd	r8, Y+12	; 0x0c
    584a:	9b 84       	ldd	r9, Y+11	; 0x0b
    584c:	aa 84       	ldd	r10, Y+10	; 0x0a
    584e:	b9 84       	ldd	r11, Y+9	; 0x09
    5850:	c8 84       	ldd	r12, Y+8	; 0x08
    5852:	df 80       	ldd	r13, Y+7	; 0x07
    5854:	ee 80       	ldd	r14, Y+6	; 0x06
    5856:	fd 80       	ldd	r15, Y+5	; 0x05
    5858:	0c 81       	ldd	r16, Y+4	; 0x04
    585a:	1b 81       	ldd	r17, Y+3	; 0x03
    585c:	aa 81       	ldd	r26, Y+2	; 0x02
    585e:	b9 81       	ldd	r27, Y+1	; 0x01
    5860:	ce 0f       	add	r28, r30
    5862:	d1 1d       	adc	r29, r1
    5864:	0f b6       	in	r0, 0x3f	; 63
    5866:	f8 94       	cli
    5868:	de bf       	out	0x3e, r29	; 62
    586a:	0f be       	out	0x3f, r0	; 63
    586c:	cd bf       	out	0x3d, r28	; 61
    586e:	ed 01       	movw	r28, r26
    5870:	08 95       	ret

00005872 <_exit>:
    5872:	f8 94       	cli

00005874 <__stop_program>:
    5874:	ff cf       	rjmp	.-2      	; 0x5874 <__stop_program>
